ARM GAS  C:\Users\David\AppData\Local\Temp\ccOenjIg.s 			page 1


   1              		.syntax unified
   2              		.cpu cortex-m3
   3              		.fpu softvfp
   4              		.eabi_attribute 20, 1
   5              		.eabi_attribute 21, 1
   6              		.eabi_attribute 23, 3
   7              		.eabi_attribute 24, 1
   8              		.eabi_attribute 25, 1
   9              		.eabi_attribute 26, 1
  10              		.eabi_attribute 30, 6
  11              		.eabi_attribute 34, 1
  12              		.eabi_attribute 18, 4
  13              		.thumb
  14              		.syntax unified
  15              		.file	"cyfitter_cfg.c"
  16              		.text
  17              	.Ltext0:
  18              		.cfi_sections	.debug_frame
  19              		.section	.text.CYMEMZERO,"ax",%progbits
  20              		.align	2
  21              		.thumb
  22              		.thumb_func
  23              		.type	CYMEMZERO, %function
  24              	CYMEMZERO:
  25              	.LFB0:
  26              		.file 1 "Generated_Source\\PSoC5\\cyfitter_cfg.c"
   1:Generated_Source\PSoC5/cyfitter_cfg.c **** 
   2:Generated_Source\PSoC5/cyfitter_cfg.c **** /*******************************************************************************
   3:Generated_Source\PSoC5/cyfitter_cfg.c **** * File Name: cyfitter_cfg.c
   4:Generated_Source\PSoC5/cyfitter_cfg.c **** * 
   5:Generated_Source\PSoC5/cyfitter_cfg.c **** * PSoC Creator  4.2
   6:Generated_Source\PSoC5/cyfitter_cfg.c **** *
   7:Generated_Source\PSoC5/cyfitter_cfg.c **** * Description:
   8:Generated_Source\PSoC5/cyfitter_cfg.c **** * This file contains device initialization code.
   9:Generated_Source\PSoC5/cyfitter_cfg.c **** * Except for the user defined sections in CyClockStartupError(), this file should not be modified.
  10:Generated_Source\PSoC5/cyfitter_cfg.c **** * This file is automatically generated by PSoC Creator.
  11:Generated_Source\PSoC5/cyfitter_cfg.c **** *
  12:Generated_Source\PSoC5/cyfitter_cfg.c **** ********************************************************************************
  13:Generated_Source\PSoC5/cyfitter_cfg.c **** * Copyright (c) 2007-2018 Cypress Semiconductor.  All rights reserved.
  14:Generated_Source\PSoC5/cyfitter_cfg.c **** * You may use this file only in accordance with the license, terms, conditions, 
  15:Generated_Source\PSoC5/cyfitter_cfg.c **** * disclaimers, and limitations in the end user license agreement accompanying 
  16:Generated_Source\PSoC5/cyfitter_cfg.c **** * the software package with which this file was provided.
  17:Generated_Source\PSoC5/cyfitter_cfg.c **** ********************************************************************************/
  18:Generated_Source\PSoC5/cyfitter_cfg.c **** 
  19:Generated_Source\PSoC5/cyfitter_cfg.c **** #include <string.h>
  20:Generated_Source\PSoC5/cyfitter_cfg.c **** #include "cytypes.h"
  21:Generated_Source\PSoC5/cyfitter_cfg.c **** #include "cydevice_trm.h"
  22:Generated_Source\PSoC5/cyfitter_cfg.c **** #include "cyfitter.h"
  23:Generated_Source\PSoC5/cyfitter_cfg.c **** #include "CyLib.h"
  24:Generated_Source\PSoC5/cyfitter_cfg.c **** #include "cyfitter_cfg.h"
  25:Generated_Source\PSoC5/cyfitter_cfg.c **** 
  26:Generated_Source\PSoC5/cyfitter_cfg.c **** #define CY_NEED_CYCLOCKSTARTUPERROR 1
  27:Generated_Source\PSoC5/cyfitter_cfg.c **** 
  28:Generated_Source\PSoC5/cyfitter_cfg.c **** 
  29:Generated_Source\PSoC5/cyfitter_cfg.c **** #if defined(__GNUC__) || defined(__ARMCC_VERSION)
  30:Generated_Source\PSoC5/cyfitter_cfg.c ****     #define CYPACKED 
  31:Generated_Source\PSoC5/cyfitter_cfg.c ****     #define CYPACKED_ATTR __attribute__ ((packed))
ARM GAS  C:\Users\David\AppData\Local\Temp\ccOenjIg.s 			page 2


  32:Generated_Source\PSoC5/cyfitter_cfg.c ****     #define CYALIGNED __attribute__ ((aligned))
  33:Generated_Source\PSoC5/cyfitter_cfg.c ****     #define CY_CFG_UNUSED __attribute__ ((unused))
  34:Generated_Source\PSoC5/cyfitter_cfg.c ****     #ifndef CY_CFG_SECTION
  35:Generated_Source\PSoC5/cyfitter_cfg.c ****         #define CY_CFG_SECTION __attribute__ ((section(".psocinit")))
  36:Generated_Source\PSoC5/cyfitter_cfg.c ****     #endif
  37:Generated_Source\PSoC5/cyfitter_cfg.c ****     
  38:Generated_Source\PSoC5/cyfitter_cfg.c ****     #if CYDEV_CONFIGURATION_DMA
  39:Generated_Source\PSoC5/cyfitter_cfg.c ****         #if (defined(__ARMCC_VERSION) || defined(__GNUC__))
  40:Generated_Source\PSoC5/cyfitter_cfg.c ****             #ifndef DMAINITSEC
  41:Generated_Source\PSoC5/cyfitter_cfg.c ****                 #define DMAINITSEC __attribute__ ((section(".dma_init")))
  42:Generated_Source\PSoC5/cyfitter_cfg.c ****             #endif
  43:Generated_Source\PSoC5/cyfitter_cfg.c ****         #elif defined(__ICCARM__)
  44:Generated_Source\PSoC5/cyfitter_cfg.c ****             #define DMAINITSEC _Pragma("location=\".dma_init\"")
  45:Generated_Source\PSoC5/cyfitter_cfg.c ****         #endif
  46:Generated_Source\PSoC5/cyfitter_cfg.c ****     #else
  47:Generated_Source\PSoC5/cyfitter_cfg.c ****         #define DMAINITSEC
  48:Generated_Source\PSoC5/cyfitter_cfg.c ****     #endif
  49:Generated_Source\PSoC5/cyfitter_cfg.c **** 
  50:Generated_Source\PSoC5/cyfitter_cfg.c ****     #if defined(__ARMCC_VERSION)
  51:Generated_Source\PSoC5/cyfitter_cfg.c ****         #define CY_CFG_MEMORY_BARRIER() __memory_changed()
  52:Generated_Source\PSoC5/cyfitter_cfg.c ****     #else
  53:Generated_Source\PSoC5/cyfitter_cfg.c ****         #define CY_CFG_MEMORY_BARRIER() __sync_synchronize()
  54:Generated_Source\PSoC5/cyfitter_cfg.c ****     #endif
  55:Generated_Source\PSoC5/cyfitter_cfg.c ****     
  56:Generated_Source\PSoC5/cyfitter_cfg.c **** #elif defined(__ICCARM__)
  57:Generated_Source\PSoC5/cyfitter_cfg.c ****     #include <intrinsics.h>
  58:Generated_Source\PSoC5/cyfitter_cfg.c **** 
  59:Generated_Source\PSoC5/cyfitter_cfg.c ****     #define CYPACKED __packed
  60:Generated_Source\PSoC5/cyfitter_cfg.c ****     #define CYPACKED_ATTR 
  61:Generated_Source\PSoC5/cyfitter_cfg.c ****     #define CYALIGNED _Pragma("data_alignment=4")
  62:Generated_Source\PSoC5/cyfitter_cfg.c ****     #define CY_CFG_UNUSED _Pragma("diag_suppress=Pe177")
  63:Generated_Source\PSoC5/cyfitter_cfg.c ****     #define CY_CFG_SECTION _Pragma("location=\".psocinit\"")
  64:Generated_Source\PSoC5/cyfitter_cfg.c ****     
  65:Generated_Source\PSoC5/cyfitter_cfg.c ****     #if CYDEV_CONFIGURATION_DMA
  66:Generated_Source\PSoC5/cyfitter_cfg.c ****         #if (defined(__ARMCC_VERSION) || defined(__GNUC__))
  67:Generated_Source\PSoC5/cyfitter_cfg.c ****             #ifndef DMAINITSEC
  68:Generated_Source\PSoC5/cyfitter_cfg.c ****                 #define DMAINITSEC __attribute__ ((section(".dma_init")))
  69:Generated_Source\PSoC5/cyfitter_cfg.c ****             #endif
  70:Generated_Source\PSoC5/cyfitter_cfg.c ****         #elif defined(__ICCARM__)
  71:Generated_Source\PSoC5/cyfitter_cfg.c ****             #define DMAINITSEC _Pragma("location=\".dma_init\"")
  72:Generated_Source\PSoC5/cyfitter_cfg.c ****         #endif
  73:Generated_Source\PSoC5/cyfitter_cfg.c ****     #else
  74:Generated_Source\PSoC5/cyfitter_cfg.c ****         #define DMAINITSEC
  75:Generated_Source\PSoC5/cyfitter_cfg.c ****     #endif
  76:Generated_Source\PSoC5/cyfitter_cfg.c **** 
  77:Generated_Source\PSoC5/cyfitter_cfg.c ****     #define CY_CFG_MEMORY_BARRIER() __DMB()
  78:Generated_Source\PSoC5/cyfitter_cfg.c ****     
  79:Generated_Source\PSoC5/cyfitter_cfg.c **** #else
  80:Generated_Source\PSoC5/cyfitter_cfg.c ****     #error Unsupported toolchain
  81:Generated_Source\PSoC5/cyfitter_cfg.c **** #endif
  82:Generated_Source\PSoC5/cyfitter_cfg.c **** 
  83:Generated_Source\PSoC5/cyfitter_cfg.c **** #ifndef CYCODE
  84:Generated_Source\PSoC5/cyfitter_cfg.c ****     #define CYCODE
  85:Generated_Source\PSoC5/cyfitter_cfg.c **** #endif
  86:Generated_Source\PSoC5/cyfitter_cfg.c **** #ifndef CYDATA
  87:Generated_Source\PSoC5/cyfitter_cfg.c ****     #define CYDATA
  88:Generated_Source\PSoC5/cyfitter_cfg.c **** #endif
ARM GAS  C:\Users\David\AppData\Local\Temp\ccOenjIg.s 			page 3


  89:Generated_Source\PSoC5/cyfitter_cfg.c **** #ifndef CYFAR
  90:Generated_Source\PSoC5/cyfitter_cfg.c ****     #define CYFAR
  91:Generated_Source\PSoC5/cyfitter_cfg.c **** #endif
  92:Generated_Source\PSoC5/cyfitter_cfg.c **** #ifndef CYXDATA
  93:Generated_Source\PSoC5/cyfitter_cfg.c ****     #define CYXDATA
  94:Generated_Source\PSoC5/cyfitter_cfg.c **** #endif
  95:Generated_Source\PSoC5/cyfitter_cfg.c **** 
  96:Generated_Source\PSoC5/cyfitter_cfg.c **** 
  97:Generated_Source\PSoC5/cyfitter_cfg.c **** CY_CFG_UNUSED
  98:Generated_Source\PSoC5/cyfitter_cfg.c **** static void CYMEMZERO(void *s, size_t n);
  99:Generated_Source\PSoC5/cyfitter_cfg.c **** CY_CFG_UNUSED
 100:Generated_Source\PSoC5/cyfitter_cfg.c **** static void CYMEMZERO(void *s, size_t n)
 101:Generated_Source\PSoC5/cyfitter_cfg.c **** {
  27              		.loc 1 101 0
  28              		.cfi_startproc
  29              		@ args = 0, pretend = 0, frame = 8
  30              		@ frame_needed = 1, uses_anonymous_args = 0
  31 0000 80B5     		push	{r7, lr}
  32              		.cfi_def_cfa_offset 8
  33              		.cfi_offset 7, -8
  34              		.cfi_offset 14, -4
  35 0002 82B0     		sub	sp, sp, #8
  36              		.cfi_def_cfa_offset 16
  37 0004 00AF     		add	r7, sp, #0
  38              		.cfi_def_cfa_register 7
  39 0006 7860     		str	r0, [r7, #4]
  40 0008 3960     		str	r1, [r7]
 102:Generated_Source\PSoC5/cyfitter_cfg.c **** 	(void)memset(s, 0, n);
  41              		.loc 1 102 0
  42 000a 3A68     		ldr	r2, [r7]
  43 000c 0021     		movs	r1, #0
  44 000e 7868     		ldr	r0, [r7, #4]
  45 0010 FFF7FEFF 		bl	memset
 103:Generated_Source\PSoC5/cyfitter_cfg.c **** }
  46              		.loc 1 103 0
  47 0014 00BF     		nop
  48 0016 0837     		adds	r7, r7, #8
  49              		.cfi_def_cfa_offset 8
  50 0018 BD46     		mov	sp, r7
  51              		.cfi_def_cfa_register 13
  52              		@ sp needed
  53 001a 80BD     		pop	{r7, pc}
  54              		.cfi_endproc
  55              	.LFE0:
  56              		.size	CYMEMZERO, .-CYMEMZERO
  57              		.section	.text.CYCONFIGCPY,"ax",%progbits
  58              		.align	2
  59              		.thumb
  60              		.thumb_func
  61              		.type	CYCONFIGCPY, %function
  62              	CYCONFIGCPY:
  63              	.LFB1:
 104:Generated_Source\PSoC5/cyfitter_cfg.c **** CY_CFG_UNUSED
 105:Generated_Source\PSoC5/cyfitter_cfg.c **** static void CYCONFIGCPY(void *dest, const void *src, size_t n);
 106:Generated_Source\PSoC5/cyfitter_cfg.c **** CY_CFG_UNUSED
 107:Generated_Source\PSoC5/cyfitter_cfg.c **** static void CYCONFIGCPY(void *dest, const void *src, size_t n)
 108:Generated_Source\PSoC5/cyfitter_cfg.c **** {
ARM GAS  C:\Users\David\AppData\Local\Temp\ccOenjIg.s 			page 4


  64              		.loc 1 108 0
  65              		.cfi_startproc
  66              		@ args = 0, pretend = 0, frame = 16
  67              		@ frame_needed = 1, uses_anonymous_args = 0
  68 0000 80B5     		push	{r7, lr}
  69              		.cfi_def_cfa_offset 8
  70              		.cfi_offset 7, -8
  71              		.cfi_offset 14, -4
  72 0002 84B0     		sub	sp, sp, #16
  73              		.cfi_def_cfa_offset 24
  74 0004 00AF     		add	r7, sp, #0
  75              		.cfi_def_cfa_register 7
  76 0006 F860     		str	r0, [r7, #12]
  77 0008 B960     		str	r1, [r7, #8]
  78 000a 7A60     		str	r2, [r7, #4]
 109:Generated_Source\PSoC5/cyfitter_cfg.c **** 	(void)memcpy(dest, src, n);
  79              		.loc 1 109 0
  80 000c 7A68     		ldr	r2, [r7, #4]
  81 000e B968     		ldr	r1, [r7, #8]
  82 0010 F868     		ldr	r0, [r7, #12]
  83 0012 FFF7FEFF 		bl	memcpy
 110:Generated_Source\PSoC5/cyfitter_cfg.c **** }
  84              		.loc 1 110 0
  85 0016 00BF     		nop
  86 0018 1037     		adds	r7, r7, #16
  87              		.cfi_def_cfa_offset 8
  88 001a BD46     		mov	sp, r7
  89              		.cfi_def_cfa_register 13
  90              		@ sp needed
  91 001c 80BD     		pop	{r7, pc}
  92              		.cfi_endproc
  93              	.LFE1:
  94              		.size	CYCONFIGCPY, .-CYCONFIGCPY
  95 001e 00BF     		.section	.text.CYCONFIGCPYCODE,"ax",%progbits
  96              		.align	2
  97              		.thumb
  98              		.thumb_func
  99              		.type	CYCONFIGCPYCODE, %function
 100              	CYCONFIGCPYCODE:
 101              	.LFB2:
 111:Generated_Source\PSoC5/cyfitter_cfg.c **** CY_CFG_UNUSED
 112:Generated_Source\PSoC5/cyfitter_cfg.c **** static void CYCONFIGCPYCODE(void *dest, const void *src, size_t n);
 113:Generated_Source\PSoC5/cyfitter_cfg.c **** CY_CFG_UNUSED
 114:Generated_Source\PSoC5/cyfitter_cfg.c **** static void CYCONFIGCPYCODE(void *dest, const void *src, size_t n)
 115:Generated_Source\PSoC5/cyfitter_cfg.c **** {
 102              		.loc 1 115 0
 103              		.cfi_startproc
 104              		@ args = 0, pretend = 0, frame = 16
 105              		@ frame_needed = 1, uses_anonymous_args = 0
 106 0000 80B5     		push	{r7, lr}
 107              		.cfi_def_cfa_offset 8
 108              		.cfi_offset 7, -8
 109              		.cfi_offset 14, -4
 110 0002 84B0     		sub	sp, sp, #16
 111              		.cfi_def_cfa_offset 24
 112 0004 00AF     		add	r7, sp, #0
 113              		.cfi_def_cfa_register 7
ARM GAS  C:\Users\David\AppData\Local\Temp\ccOenjIg.s 			page 5


 114 0006 F860     		str	r0, [r7, #12]
 115 0008 B960     		str	r1, [r7, #8]
 116 000a 7A60     		str	r2, [r7, #4]
 116:Generated_Source\PSoC5/cyfitter_cfg.c **** 	(void)memcpy(dest, src, n);
 117              		.loc 1 116 0
 118 000c 7A68     		ldr	r2, [r7, #4]
 119 000e B968     		ldr	r1, [r7, #8]
 120 0010 F868     		ldr	r0, [r7, #12]
 121 0012 FFF7FEFF 		bl	memcpy
 117:Generated_Source\PSoC5/cyfitter_cfg.c **** }
 122              		.loc 1 117 0
 123 0016 00BF     		nop
 124 0018 1037     		adds	r7, r7, #16
 125              		.cfi_def_cfa_offset 8
 126 001a BD46     		mov	sp, r7
 127              		.cfi_def_cfa_register 13
 128              		@ sp needed
 129 001c 80BD     		pop	{r7, pc}
 130              		.cfi_endproc
 131              	.LFE2:
 132              		.size	CYCONFIGCPYCODE, .-CYCONFIGCPYCODE
 133 001e 00BF     		.section	.text.CyClockStartupError,"ax",%progbits
 134              		.align	2
 135              		.thumb
 136              		.thumb_func
 137              		.type	CyClockStartupError, %function
 138              	CyClockStartupError:
 139              	.LFB3:
 118:Generated_Source\PSoC5/cyfitter_cfg.c **** 
 119:Generated_Source\PSoC5/cyfitter_cfg.c **** 
 120:Generated_Source\PSoC5/cyfitter_cfg.c **** 
 121:Generated_Source\PSoC5/cyfitter_cfg.c **** 
 122:Generated_Source\PSoC5/cyfitter_cfg.c **** /* Clock startup error codes                                                   */
 123:Generated_Source\PSoC5/cyfitter_cfg.c **** #define CYCLOCKSTART_NO_ERROR    0u
 124:Generated_Source\PSoC5/cyfitter_cfg.c **** #define CYCLOCKSTART_XTAL_ERROR  1u
 125:Generated_Source\PSoC5/cyfitter_cfg.c **** #define CYCLOCKSTART_32KHZ_ERROR 2u
 126:Generated_Source\PSoC5/cyfitter_cfg.c **** #define CYCLOCKSTART_PLL_ERROR   3u
 127:Generated_Source\PSoC5/cyfitter_cfg.c **** #define CYCLOCKSTART_FLL_ERROR   4u
 128:Generated_Source\PSoC5/cyfitter_cfg.c **** #define CYCLOCKSTART_WCO_ERROR   5u
 129:Generated_Source\PSoC5/cyfitter_cfg.c **** 
 130:Generated_Source\PSoC5/cyfitter_cfg.c **** 
 131:Generated_Source\PSoC5/cyfitter_cfg.c **** #ifdef CY_NEED_CYCLOCKSTARTUPERROR
 132:Generated_Source\PSoC5/cyfitter_cfg.c **** /*******************************************************************************
 133:Generated_Source\PSoC5/cyfitter_cfg.c **** * Function Name: CyClockStartupError
 134:Generated_Source\PSoC5/cyfitter_cfg.c **** ********************************************************************************
 135:Generated_Source\PSoC5/cyfitter_cfg.c **** * Summary:
 136:Generated_Source\PSoC5/cyfitter_cfg.c **** *  If an error is encountered during clock configuration (crystal startup error,
 137:Generated_Source\PSoC5/cyfitter_cfg.c **** *  PLL lock error, etc.), the system will end up here.  Unless reimplemented by
 138:Generated_Source\PSoC5/cyfitter_cfg.c **** *  the customer, this function will stop in an infinite loop.
 139:Generated_Source\PSoC5/cyfitter_cfg.c **** *
 140:Generated_Source\PSoC5/cyfitter_cfg.c **** * Parameters:
 141:Generated_Source\PSoC5/cyfitter_cfg.c **** *   void
 142:Generated_Source\PSoC5/cyfitter_cfg.c **** *
 143:Generated_Source\PSoC5/cyfitter_cfg.c **** * Return:
 144:Generated_Source\PSoC5/cyfitter_cfg.c **** *   void
 145:Generated_Source\PSoC5/cyfitter_cfg.c **** *
 146:Generated_Source\PSoC5/cyfitter_cfg.c **** *******************************************************************************/
ARM GAS  C:\Users\David\AppData\Local\Temp\ccOenjIg.s 			page 6


 147:Generated_Source\PSoC5/cyfitter_cfg.c **** CY_CFG_UNUSED
 148:Generated_Source\PSoC5/cyfitter_cfg.c **** static void CyClockStartupError(uint8 errorCode);
 149:Generated_Source\PSoC5/cyfitter_cfg.c **** CY_CFG_UNUSED
 150:Generated_Source\PSoC5/cyfitter_cfg.c **** static void CyClockStartupError(uint8 errorCode)
 151:Generated_Source\PSoC5/cyfitter_cfg.c **** {
 140              		.loc 1 151 0
 141              		.cfi_startproc
 142              		@ args = 0, pretend = 0, frame = 8
 143              		@ frame_needed = 1, uses_anonymous_args = 0
 144              		@ link register save eliminated.
 145 0000 80B4     		push	{r7}
 146              		.cfi_def_cfa_offset 4
 147              		.cfi_offset 7, -4
 148 0002 83B0     		sub	sp, sp, #12
 149              		.cfi_def_cfa_offset 16
 150 0004 00AF     		add	r7, sp, #0
 151              		.cfi_def_cfa_register 7
 152 0006 0346     		mov	r3, r0
 153 0008 FB71     		strb	r3, [r7, #7]
 154              	.L5:
 152:Generated_Source\PSoC5/cyfitter_cfg.c ****     /* To remove the compiler warning if errorCode not used.                */
 153:Generated_Source\PSoC5/cyfitter_cfg.c ****     errorCode = errorCode;
 154:Generated_Source\PSoC5/cyfitter_cfg.c **** 
 155:Generated_Source\PSoC5/cyfitter_cfg.c ****     /* If we have a clock startup error (bad MHz crystal, PLL lock, etc.),  */
 156:Generated_Source\PSoC5/cyfitter_cfg.c ****     /* we will end up here to allow the customer to implement something to  */
 157:Generated_Source\PSoC5/cyfitter_cfg.c ****     /* deal with the clock condition.                                       */
 158:Generated_Source\PSoC5/cyfitter_cfg.c **** 
 159:Generated_Source\PSoC5/cyfitter_cfg.c **** #ifdef CY_CFG_CLOCK_STARTUP_ERROR_CALLBACK
 160:Generated_Source\PSoC5/cyfitter_cfg.c ****     CY_CFG_Clock_Startup_ErrorCallback();
 161:Generated_Source\PSoC5/cyfitter_cfg.c **** #else
 162:Generated_Source\PSoC5/cyfitter_cfg.c ****     /*  If not using CY_CFG_CLOCK_STARTUP_ERROR_CALLBACK, place your clock startup code here. */
 163:Generated_Source\PSoC5/cyfitter_cfg.c ****     /* `#START CyClockStartupError` */
 164:Generated_Source\PSoC5/cyfitter_cfg.c **** 
 165:Generated_Source\PSoC5/cyfitter_cfg.c **** 
 166:Generated_Source\PSoC5/cyfitter_cfg.c **** 
 167:Generated_Source\PSoC5/cyfitter_cfg.c ****     /* `#END` */
 168:Generated_Source\PSoC5/cyfitter_cfg.c **** 
 169:Generated_Source\PSoC5/cyfitter_cfg.c ****     while(1) {}
 155              		.loc 1 169 0 discriminator 1
 156 000a FEE7     		b	.L5
 157              		.cfi_endproc
 158              	.LFE3:
 159              		.size	CyClockStartupError, .-CyClockStartupError
 160              		.section	.dma_init,"a",%progbits
 161              		.align	2
 162              		.type	CH1_ADDR_DATA0.4988, %object
 163              		.size	CH1_ADDR_DATA0.4988, 8
 164              	CH1_ADDR_DATA0.4988:
 165 0000 01       		.byte	1
 166 0001 00       		.byte	0
 167 0002 00       		.byte	0
 168 0003 00       		.byte	0
 169 0004 00       		.byte	0
 170 0005 20       		.byte	32
 171 0006 00       		.byte	0
 172 0007 40       		.byte	64
 173              		.align	2
ARM GAS  C:\Users\David\AppData\Local\Temp\ccOenjIg.s 			page 7


 174              		.type	CH2_ADDR_DATA0.4989, %object
 175              		.size	CH2_ADDR_DATA0.4989, 8
 176              	CH2_ADDR_DATA0.4989:
 177 0008 01       		.byte	1
 178 0009 00       		.byte	0
 179 000a 00       		.byte	0
 180 000b 00       		.byte	0
 181 000c 00       		.byte	0
 182 000d 20       		.byte	32
 183 000e 01       		.byte	1
 184 000f 40       		.byte	64
 185              		.align	2
 186              		.type	CH5_ADDR_DATA0.4990, %object
 187              		.size	CH5_ADDR_DATA0.4990, 8
 188              	CH5_ADDR_DATA0.4990:
 189 0010 01       		.byte	1
 190 0011 00       		.byte	0
 191 0012 00       		.byte	0
 192 0013 00       		.byte	0
 193 0014 00       		.byte	0
 194 0015 48       		.byte	72
 195 0016 00       		.byte	0
 196 0017 40       		.byte	64
 197              		.align	2
 198              		.type	CH6_ADDR_DATA0.4991, %object
 199              		.size	CH6_ADDR_DATA0.4991, 8
 200              	CH6_ADDR_DATA0.4991:
 201 0018 01       		.byte	1
 202 0019 00       		.byte	0
 203 001a 00       		.byte	0
 204 001b 00       		.byte	0
 205 001c 00       		.byte	0
 206 001d 48       		.byte	72
 207 001e 01       		.byte	1
 208 001f 40       		.byte	64
 209              		.align	2
 210              		.type	DMA_TD_START_CMD.4992, %object
 211              		.size	DMA_TD_START_CMD.4992, 5
 212              	DMA_TD_START_CMD.4992:
 213 0020 01       		.byte	1
 214 0021 00       		.byte	0
 215 0022 00       		.byte	0
 216 0023 00       		.byte	0
 217 0024 01       		.byte	1
 218 0025 000000   		.align	2
 219              		.type	CFG_TD_LIST0.4994, %object
 220              		.size	CFG_TD_LIST0.4994, 416
 221              	CFG_TD_LIST0.4994:
 222 0028 0800     		.short	8
 223 002a 02       		.byte	2
 224 002b 23       		.byte	35
 225 002c 0000     		.short	0
 226 002e 0876     		.short	30216
 227 0030 0800     		.short	8
 228 0032 03       		.byte	3
 229 0033 23       		.byte	35
 230 0034 0000     		.short	0
ARM GAS  C:\Users\David\AppData\Local\Temp\ccOenjIg.s 			page 8


 231 0036 1076     		.short	30224
 232 0038 0800     		.short	8
 233 003a 04       		.byte	4
 234 003b 23       		.byte	35
 235 003c 0000     		.short	0
 236 003e 2876     		.short	30248
 237 0040 0800     		.short	8
 238 0042 05       		.byte	5
 239 0043 23       		.byte	35
 240 0044 0000     		.short	0
 241 0046 3076     		.short	30256
 242 0048 0500     		.short	5
 243 004a 06       		.byte	6
 244 004b 23       		.byte	35
 245 004c 0000     		.short	0
 246 004e 2070     		.short	28704
 247 0050 0500     		.short	5
 248 0052 07       		.byte	7
 249 0053 23       		.byte	35
 250 0054 0000     		.short	0
 251 0056 3070     		.short	28720
 252 0058 0500     		.short	5
 253 005a 08       		.byte	8
 254 005b 23       		.byte	35
 255 005c 0000     		.short	0
 256 005e 6070     		.short	28768
 257 0060 0500     		.short	5
 258 0062 FE       		.byte	-2
 259 0063 23       		.byte	35
 260 0064 0000     		.short	0
 261 0066 7070     		.short	28784
 262 0068 2000     		.short	32
 263 006a 0A       		.byte	10
 264 006b 22       		.byte	34
 265 006c 0000     		.short	0
 266 006e 4051     		.short	20800
 267 0070 1000     		.short	16
 268 0072 0B       		.byte	11
 269 0073 22       		.byte	34
 270 0074 0000     		.short	0
 271 0076 C051     		.short	20928
 272 0078 1000     		.short	16
 273 007a FE       		.byte	-2
 274 007b 22       		.byte	34
 275 007c 0000     		.short	0
 276 007e F051     		.short	20976
 277 0080 8007     		.short	1920
 278 0082 0D       		.byte	13
 279 0083 22       		.byte	34
 280 0084 0000     		.short	0
 281 0086 0000     		.short	0
 282 0088 8001     		.short	384
 283 008a 0E       		.byte	14
 284 008b 22       		.byte	34
 285 008c 0000     		.short	0
 286 008e 0008     		.short	2048
 287 0090 8000     		.short	128
ARM GAS  C:\Users\David\AppData\Local\Temp\ccOenjIg.s 			page 9


 288 0092 0F       		.byte	15
 289 0093 22       		.byte	34
 290 0094 0000     		.short	0
 291 0096 000A     		.short	2560
 292 0098 8001     		.short	384
 293 009a 10       		.byte	16
 294 009b 22       		.byte	34
 295 009c 0000     		.short	0
 296 009e 000C     		.short	3072
 297 00a0 0002     		.short	512
 298 00a2 11       		.byte	17
 299 00a3 22       		.byte	34
 300 00a4 0000     		.short	0
 301 00a6 000E     		.short	3584
 302 00a8 8001     		.short	384
 303 00aa 12       		.byte	18
 304 00ab 22       		.byte	34
 305 00ac 0000     		.short	0
 306 00ae 0014     		.short	5120
 307 00b0 8005     		.short	1408
 308 00b2 13       		.byte	19
 309 00b3 22       		.byte	34
 310 00b4 0000     		.short	0
 311 00b6 0016     		.short	5632
 312 00b8 0001     		.short	256
 313 00ba 14       		.byte	20
 314 00bb 22       		.byte	34
 315 00bc 0000     		.short	0
 316 00be 0040     		.short	16384
 317 00c0 8000     		.short	128
 318 00c2 15       		.byte	21
 319 00c3 22       		.byte	34
 320 00c4 0000     		.short	0
 321 00c6 0045     		.short	17664
 322 00c8 8000     		.short	128
 323 00ca 16       		.byte	22
 324 00cb 22       		.byte	34
 325 00cc 0000     		.short	0
 326 00ce 0047     		.short	18176
 327 00d0 8000     		.short	128
 328 00d2 17       		.byte	23
 329 00d3 22       		.byte	34
 330 00d4 0000     		.short	0
 331 00d6 0049     		.short	18688
 332 00d8 8000     		.short	128
 333 00da 18       		.byte	24
 334 00db 22       		.byte	34
 335 00dc 0000     		.short	0
 336 00de 004C     		.short	19456
 337 00e0 8000     		.short	128
 338 00e2 19       		.byte	25
 339 00e3 22       		.byte	34
 340 00e4 0000     		.short	0
 341 00e6 004D     		.short	19712
 342 00e8 2000     		.short	32
 343 00ea FE       		.byte	-2
 344 00eb 22       		.byte	34
ARM GAS  C:\Users\David\AppData\Local\Temp\ccOenjIg.s 			page 10


 345 00ec 0000     		.short	0
 346 00ee 0050     		.short	20480
 347 00f0 0700     		.short	7
 348 00f2 1B       		.byte	27
 349 00f3 23       		.byte	35
 350 00f4 0000     		.short	0
 351 00f6 0052     		.short	20992
 352 00f8 0C00     		.short	12
 353 00fa FE       		.byte	-2
 354 00fb 23       		.byte	35
 355 00fc 0000     		.short	0
 356 00fe 004F     		.short	20224
 357 0100 8000     		.short	128
 358 0102 1D       		.byte	29
 359 0103 23       		.byte	35
 360 0104 0000     		.short	0
 361 0106 800A     		.short	2688
 362 0108 8000     		.short	128
 363 010a 1E       		.byte	30
 364 010b 23       		.byte	35
 365 010c 0000     		.short	0
 366 010e 804D     		.short	19840
 367 0110 8000     		.short	128
 368 0112 1F       		.byte	31
 369 0113 23       		.byte	35
 370 0114 0000     		.short	0
 371 0116 804C     		.short	19584
 372 0118 8000     		.short	128
 373 011a 20       		.byte	32
 374 011b 23       		.byte	35
 375 011c 0000     		.short	0
 376 011e 8047     		.short	18304
 377 0120 8000     		.short	128
 378 0122 21       		.byte	33
 379 0123 23       		.byte	35
 380 0124 0000     		.short	0
 381 0126 0046     		.short	17920
 382 0128 8000     		.short	128
 383 012a 22       		.byte	34
 384 012b 23       		.byte	35
 385 012c 0000     		.short	0
 386 012e 8046     		.short	18048
 387 0130 8000     		.short	128
 388 0132 23       		.byte	35
 389 0133 23       		.byte	35
 390 0134 0000     		.short	0
 391 0136 8045     		.short	17792
 392 0138 8000     		.short	128
 393 013a 24       		.byte	36
 394 013b 23       		.byte	35
 395 013c 0000     		.short	0
 396 013e 0044     		.short	17408
 397 0140 8000     		.short	128
 398 0142 25       		.byte	37
 399 0143 23       		.byte	35
 400 0144 0000     		.short	0
 401 0146 8044     		.short	17536
ARM GAS  C:\Users\David\AppData\Local\Temp\ccOenjIg.s 			page 11


 402 0148 8000     		.short	128
 403 014a 26       		.byte	38
 404 014b 23       		.byte	35
 405 014c 0000     		.short	0
 406 014e 801B     		.short	7040
 407 0150 8000     		.short	128
 408 0152 27       		.byte	39
 409 0153 23       		.byte	35
 410 0154 0000     		.short	0
 411 0156 8015     		.short	5504
 412 0158 8000     		.short	128
 413 015a 28       		.byte	40
 414 015b 23       		.byte	35
 415 015c 0000     		.short	0
 416 015e 8009     		.short	2432
 417 0160 8000     		.short	128
 418 0162 29       		.byte	41
 419 0163 23       		.byte	35
 420 0164 0000     		.short	0
 421 0166 8007     		.short	1920
 422 0168 8000     		.short	128
 423 016a 2A       		.byte	42
 424 016b 23       		.byte	35
 425 016c 0000     		.short	0
 426 016e 000B     		.short	2816
 427 0170 8000     		.short	128
 428 0172 2B       		.byte	43
 429 0173 23       		.byte	35
 430 0174 0000     		.short	0
 431 0176 800B     		.short	2944
 432 0178 8000     		.short	128
 433 017a 2C       		.byte	44
 434 017b 23       		.byte	35
 435 017c 0000     		.short	0
 436 017e 800D     		.short	3456
 437 0180 8000     		.short	128
 438 0182 2D       		.byte	45
 439 0183 23       		.byte	35
 440 0184 0000     		.short	0
 441 0186 8049     		.short	18816
 442 0188 8000     		.short	128
 443 018a 2E       		.byte	46
 444 018b 23       		.byte	35
 445 018c 0000     		.short	0
 446 018e 0048     		.short	18432
 447 0190 8000     		.short	128
 448 0192 2F       		.byte	47
 449 0193 23       		.byte	35
 450 0194 0000     		.short	0
 451 0196 8048     		.short	18560
 452 0198 8000     		.short	128
 453 019a 30       		.byte	48
 454 019b 23       		.byte	35
 455 019c 0000     		.short	0
 456 019e 0043     		.short	17152
 457 01a0 8000     		.short	128
 458 01a2 31       		.byte	49
ARM GAS  C:\Users\David\AppData\Local\Temp\ccOenjIg.s 			page 12


 459 01a3 23       		.byte	35
 460 01a4 0000     		.short	0
 461 01a6 8043     		.short	17280
 462 01a8 8000     		.short	128
 463 01aa 32       		.byte	50
 464 01ab 23       		.byte	35
 465 01ac 0000     		.short	0
 466 01ae 0042     		.short	16896
 467 01b0 8000     		.short	128
 468 01b2 33       		.byte	51
 469 01b3 23       		.byte	35
 470 01b4 0000     		.short	0
 471 01b6 8042     		.short	17024
 472 01b8 8000     		.short	128
 473 01ba 34       		.byte	52
 474 01bb 23       		.byte	35
 475 01bc 0000     		.short	0
 476 01be 0041     		.short	16640
 477 01c0 8000     		.short	128
 478 01c2 FE       		.byte	-2
 479 01c3 23       		.byte	35
 480 01c4 0000     		.short	0
 481 01c6 8041     		.short	16768
 482              		.section	.text.cfg_dma_init,"ax",%progbits
 483              		.align	2
 484              		.thumb
 485              		.thumb_func
 486              		.type	cfg_dma_init, %function
 487              	cfg_dma_init:
 488              	.LFB4:
 170:Generated_Source\PSoC5/cyfitter_cfg.c **** #endif /* CY_CFG_CLOCK_STARTUP_ERROR_CALLBACK */
 171:Generated_Source\PSoC5/cyfitter_cfg.c **** }
 172:Generated_Source\PSoC5/cyfitter_cfg.c **** #endif
 173:Generated_Source\PSoC5/cyfitter_cfg.c **** 
 174:Generated_Source\PSoC5/cyfitter_cfg.c **** /* IOPORT_0 Address: CYDEV_PRTDSI_PRT0_BASE Size (bytes): 7 */
 175:Generated_Source\PSoC5/cyfitter_cfg.c **** #define BS_IOPORT_0_VAL ((const uint8 CYFAR *)0x48000000u)
 176:Generated_Source\PSoC5/cyfitter_cfg.c **** 
 177:Generated_Source\PSoC5/cyfitter_cfg.c **** /* TMR0 Address: CYREG_TMR0_CFG0 Size (bytes): 12 */
 178:Generated_Source\PSoC5/cyfitter_cfg.c **** #define BS_TMR0_VAL ((const uint8 CYFAR *)0x48000008u)
 179:Generated_Source\PSoC5/cyfitter_cfg.c **** 
 180:Generated_Source\PSoC5/cyfitter_cfg.c **** /* UDB_0_3_1_CONFIG Address: CYDEV_UCFG_B0_P5_U1_BASE Size (bytes): 128 */
 181:Generated_Source\PSoC5/cyfitter_cfg.c **** #define BS_UDB_0_3_1_CONFIG_VAL ((const uint8 CYFAR *)0x48000014u)
 182:Generated_Source\PSoC5/cyfitter_cfg.c **** 
 183:Generated_Source\PSoC5/cyfitter_cfg.c **** /* DSI0_0_HV_ROUTING Address: CYDEV_UCFG_DSI13_BASE + 0x00000080u Size (bytes): 128 */
 184:Generated_Source\PSoC5/cyfitter_cfg.c **** #define BS_DSI0_0_HV_ROUTING_VAL ((const uint8 CYFAR *)0x48000094u)
 185:Generated_Source\PSoC5/cyfitter_cfg.c **** 
 186:Generated_Source\PSoC5/cyfitter_cfg.c **** /* DSI0_1_HV_ROUTING Address: CYDEV_UCFG_DSI12_BASE + 0x00000080u Size (bytes): 128 */
 187:Generated_Source\PSoC5/cyfitter_cfg.c **** #define BS_DSI0_1_HV_ROUTING_VAL ((const uint8 CYFAR *)0x48000114u)
 188:Generated_Source\PSoC5/cyfitter_cfg.c **** 
 189:Generated_Source\PSoC5/cyfitter_cfg.c **** /* DSI0_2_HV_ROUTING Address: CYDEV_UCFG_DSI7_BASE + 0x00000080u Size (bytes): 128 */
 190:Generated_Source\PSoC5/cyfitter_cfg.c **** #define BS_DSI0_2_HV_ROUTING_VAL ((const uint8 CYFAR *)0x48000194u)
 191:Generated_Source\PSoC5/cyfitter_cfg.c **** 
 192:Generated_Source\PSoC5/cyfitter_cfg.c **** /* DSISWITCH_0_3 Address: CYDEV_UCFG_DSI6_BASE Size (bytes): 128 */
 193:Generated_Source\PSoC5/cyfitter_cfg.c **** #define BS_DSISWITCH_0_3_VAL ((const uint8 CYFAR *)0x48000214u)
 194:Generated_Source\PSoC5/cyfitter_cfg.c **** 
 195:Generated_Source\PSoC5/cyfitter_cfg.c **** /* DSI0_3_HV_ROUTING Address: CYDEV_UCFG_DSI6_BASE + 0x00000080u Size (bytes): 128 */
 196:Generated_Source\PSoC5/cyfitter_cfg.c **** #define BS_DSI0_3_HV_ROUTING_VAL ((const uint8 CYFAR *)0x48000294u)
ARM GAS  C:\Users\David\AppData\Local\Temp\ccOenjIg.s 			page 13


 197:Generated_Source\PSoC5/cyfitter_cfg.c **** 
 198:Generated_Source\PSoC5/cyfitter_cfg.c **** /* DSI0_4_HV_ROUTING Address: CYDEV_UCFG_DSI5_BASE + 0x00000080u Size (bytes): 128 */
 199:Generated_Source\PSoC5/cyfitter_cfg.c **** #define BS_DSI0_4_HV_ROUTING_VAL ((const uint8 CYFAR *)0x48000314u)
 200:Generated_Source\PSoC5/cyfitter_cfg.c **** 
 201:Generated_Source\PSoC5/cyfitter_cfg.c **** /* DSISWITCH_0_5 Address: CYDEV_UCFG_DSI4_BASE Size (bytes): 128 */
 202:Generated_Source\PSoC5/cyfitter_cfg.c **** #define BS_DSISWITCH_0_5_VAL ((const uint8 CYFAR *)0x48000394u)
 203:Generated_Source\PSoC5/cyfitter_cfg.c **** 
 204:Generated_Source\PSoC5/cyfitter_cfg.c **** /* DSI0_5_HV_ROUTING Address: CYDEV_UCFG_DSI4_BASE + 0x00000080u Size (bytes): 128 */
 205:Generated_Source\PSoC5/cyfitter_cfg.c **** #define BS_DSI0_5_HV_ROUTING_VAL ((const uint8 CYFAR *)0x48000414u)
 206:Generated_Source\PSoC5/cyfitter_cfg.c **** 
 207:Generated_Source\PSoC5/cyfitter_cfg.c **** /* UDB_1_0_HV_ROUTING Address: CYDEV_UCFG_B1_P5_ROUTE_BASE + 0x00000080u Size (bytes): 128 */
 208:Generated_Source\PSoC5/cyfitter_cfg.c **** #define BS_UDB_1_0_HV_ROUTING_VAL ((const uint8 CYFAR *)0x48000494u)
 209:Generated_Source\PSoC5/cyfitter_cfg.c **** 
 210:Generated_Source\PSoC5/cyfitter_cfg.c **** /* UDB_2_0_HV_ROUTING Address: CYDEV_UCFG_B1_P2_ROUTE_BASE + 0x00000080u Size (bytes): 128 */
 211:Generated_Source\PSoC5/cyfitter_cfg.c **** #define BS_UDB_2_0_HV_ROUTING_VAL ((const uint8 CYFAR *)0x48000514u)
 212:Generated_Source\PSoC5/cyfitter_cfg.c **** 
 213:Generated_Source\PSoC5/cyfitter_cfg.c **** /* UDB_1_2_HV_ROUTING Address: CYDEV_UCFG_B0_P4_ROUTE_BASE + 0x00000080u Size (bytes): 128 */
 214:Generated_Source\PSoC5/cyfitter_cfg.c **** #define BS_UDB_1_2_HV_ROUTING_VAL ((const uint8 CYFAR *)0x48000594u)
 215:Generated_Source\PSoC5/cyfitter_cfg.c **** 
 216:Generated_Source\PSoC5/cyfitter_cfg.c **** /* UDB_2_2_HV_ROUTING Address: CYDEV_UCFG_B0_P3_ROUTE_BASE + 0x00000080u Size (bytes): 128 */
 217:Generated_Source\PSoC5/cyfitter_cfg.c **** #define BS_UDB_2_2_HV_ROUTING_VAL ((const uint8 CYFAR *)0x48000614u)
 218:Generated_Source\PSoC5/cyfitter_cfg.c **** 
 219:Generated_Source\PSoC5/cyfitter_cfg.c **** /* UDBSWITCH_0_3 Address: CYDEV_UCFG_B0_P5_ROUTE_BASE Size (bytes): 128 */
 220:Generated_Source\PSoC5/cyfitter_cfg.c **** #define BS_UDBSWITCH_0_3_VAL ((const uint8 CYFAR *)0x48000694u)
 221:Generated_Source\PSoC5/cyfitter_cfg.c **** 
 222:Generated_Source\PSoC5/cyfitter_cfg.c **** /* UDB_1_3_HV_ROUTING Address: CYDEV_UCFG_B0_P5_ROUTE_BASE + 0x00000080u Size (bytes): 128 */
 223:Generated_Source\PSoC5/cyfitter_cfg.c **** #define BS_UDB_1_3_HV_ROUTING_VAL ((const uint8 CYFAR *)0x48000714u)
 224:Generated_Source\PSoC5/cyfitter_cfg.c **** 
 225:Generated_Source\PSoC5/cyfitter_cfg.c **** /* UDB_1_4_HV_ROUTING Address: CYDEV_UCFG_B0_P6_ROUTE_BASE + 0x00000080u Size (bytes): 128 */
 226:Generated_Source\PSoC5/cyfitter_cfg.c **** #define BS_UDB_1_4_HV_ROUTING_VAL ((const uint8 CYFAR *)0x48000794u)
 227:Generated_Source\PSoC5/cyfitter_cfg.c **** 
 228:Generated_Source\PSoC5/cyfitter_cfg.c **** /* DSI3_0_HV_ROUTING Address: CYDEV_UCFG_DSI9_BASE + 0x00000080u Size (bytes): 128 */
 229:Generated_Source\PSoC5/cyfitter_cfg.c **** #define BS_DSI3_0_HV_ROUTING_VAL ((const uint8 CYFAR *)0x48000814u)
 230:Generated_Source\PSoC5/cyfitter_cfg.c **** 
 231:Generated_Source\PSoC5/cyfitter_cfg.c **** /* DSISWITCH_1_1 Address: CYDEV_UCFG_DSI8_BASE Size (bytes): 128 */
 232:Generated_Source\PSoC5/cyfitter_cfg.c **** #define BS_DSISWITCH_1_1_VAL ((const uint8 CYFAR *)0x48000894u)
 233:Generated_Source\PSoC5/cyfitter_cfg.c **** 
 234:Generated_Source\PSoC5/cyfitter_cfg.c **** /* DSI3_1_HV_ROUTING Address: CYDEV_UCFG_DSI8_BASE + 0x00000080u Size (bytes): 128 */
 235:Generated_Source\PSoC5/cyfitter_cfg.c **** #define BS_DSI3_1_HV_ROUTING_VAL ((const uint8 CYFAR *)0x48000914u)
 236:Generated_Source\PSoC5/cyfitter_cfg.c **** 
 237:Generated_Source\PSoC5/cyfitter_cfg.c **** /* DSISWITCH_1_2 Address: CYDEV_UCFG_DSI3_BASE Size (bytes): 128 */
 238:Generated_Source\PSoC5/cyfitter_cfg.c **** #define BS_DSISWITCH_1_2_VAL ((const uint8 CYFAR *)0x48000994u)
 239:Generated_Source\PSoC5/cyfitter_cfg.c **** 
 240:Generated_Source\PSoC5/cyfitter_cfg.c **** /* DSI3_2_HV_ROUTING Address: CYDEV_UCFG_DSI3_BASE + 0x00000080u Size (bytes): 128 */
 241:Generated_Source\PSoC5/cyfitter_cfg.c **** #define BS_DSI3_2_HV_ROUTING_VAL ((const uint8 CYFAR *)0x48000A14u)
 242:Generated_Source\PSoC5/cyfitter_cfg.c **** 
 243:Generated_Source\PSoC5/cyfitter_cfg.c **** /* DSISWITCH_1_3 Address: CYDEV_UCFG_DSI2_BASE Size (bytes): 128 */
 244:Generated_Source\PSoC5/cyfitter_cfg.c **** #define BS_DSISWITCH_1_3_VAL ((const uint8 CYFAR *)0x48000A94u)
 245:Generated_Source\PSoC5/cyfitter_cfg.c **** 
 246:Generated_Source\PSoC5/cyfitter_cfg.c **** /* DSI3_3_HV_ROUTING Address: CYDEV_UCFG_DSI2_BASE + 0x00000080u Size (bytes): 128 */
 247:Generated_Source\PSoC5/cyfitter_cfg.c **** #define BS_DSI3_3_HV_ROUTING_VAL ((const uint8 CYFAR *)0x48000B14u)
 248:Generated_Source\PSoC5/cyfitter_cfg.c **** 
 249:Generated_Source\PSoC5/cyfitter_cfg.c **** /* DSISWITCH_1_4 Address: CYDEV_UCFG_DSI1_BASE Size (bytes): 128 */
 250:Generated_Source\PSoC5/cyfitter_cfg.c **** #define BS_DSISWITCH_1_4_VAL ((const uint8 CYFAR *)0x48000B94u)
 251:Generated_Source\PSoC5/cyfitter_cfg.c **** 
 252:Generated_Source\PSoC5/cyfitter_cfg.c **** /* DSI3_4_HV_ROUTING Address: CYDEV_UCFG_DSI1_BASE + 0x00000080u Size (bytes): 128 */
 253:Generated_Source\PSoC5/cyfitter_cfg.c **** #define BS_DSI3_4_HV_ROUTING_VAL ((const uint8 CYFAR *)0x48000C14u)
ARM GAS  C:\Users\David\AppData\Local\Temp\ccOenjIg.s 			page 14


 254:Generated_Source\PSoC5/cyfitter_cfg.c **** 
 255:Generated_Source\PSoC5/cyfitter_cfg.c **** /* IOPINS0_0 Address: CYREG_PRT0_DM0 Size (bytes): 8 */
 256:Generated_Source\PSoC5/cyfitter_cfg.c **** #define BS_IOPINS0_0_VAL ((const uint8 CYFAR *)0x48000C94u)
 257:Generated_Source\PSoC5/cyfitter_cfg.c **** 
 258:Generated_Source\PSoC5/cyfitter_cfg.c **** /* IOPINS0_1 Address: CYREG_PRT1_DM0 Size (bytes): 8 */
 259:Generated_Source\PSoC5/cyfitter_cfg.c **** #define BS_IOPINS0_1_VAL ((const uint8 CYFAR *)0x48000C9Cu)
 260:Generated_Source\PSoC5/cyfitter_cfg.c **** 
 261:Generated_Source\PSoC5/cyfitter_cfg.c **** /* IOPINS0_2 Address: CYREG_PRT2_DM0 Size (bytes): 8 */
 262:Generated_Source\PSoC5/cyfitter_cfg.c **** #define BS_IOPINS0_2_VAL ((const uint8 CYFAR *)0x48000CA4u)
 263:Generated_Source\PSoC5/cyfitter_cfg.c **** 
 264:Generated_Source\PSoC5/cyfitter_cfg.c **** /* IOPINS0_3 Address: CYREG_PRT3_DM0 Size (bytes): 8 */
 265:Generated_Source\PSoC5/cyfitter_cfg.c **** #define BS_IOPINS0_3_VAL ((const uint8 CYFAR *)0x48000CACu)
 266:Generated_Source\PSoC5/cyfitter_cfg.c **** 
 267:Generated_Source\PSoC5/cyfitter_cfg.c **** /* IOPINS0_6 Address: CYREG_PRT6_DR Size (bytes): 10 */
 268:Generated_Source\PSoC5/cyfitter_cfg.c **** #define BS_IOPINS0_6_VAL ((const uint8 CYFAR *)0x48000CB4u)
 269:Generated_Source\PSoC5/cyfitter_cfg.c **** 
 270:Generated_Source\PSoC5/cyfitter_cfg.c **** /* CYDEV_CLKDIST_ACFG0_CFG0 Address: CYREG_CLKDIST_ACFG0_CFG0 Size (bytes): 4 */
 271:Generated_Source\PSoC5/cyfitter_cfg.c **** #define BS_CYDEV_CLKDIST_ACFG0_CFG0_VAL ((const uint8 CYFAR *)0x48000CC0u)
 272:Generated_Source\PSoC5/cyfitter_cfg.c **** 
 273:Generated_Source\PSoC5/cyfitter_cfg.c **** 
 274:Generated_Source\PSoC5/cyfitter_cfg.c **** /*******************************************************************************
 275:Generated_Source\PSoC5/cyfitter_cfg.c **** * Function Name: cfg_dma_init
 276:Generated_Source\PSoC5/cyfitter_cfg.c **** ********************************************************************************
 277:Generated_Source\PSoC5/cyfitter_cfg.c **** * Summary:
 278:Generated_Source\PSoC5/cyfitter_cfg.c **** *  This function is used to copy device configuration data from constant values
 279:Generated_Source\PSoC5/cyfitter_cfg.c **** *  stored in memory into the proper chip configuration registers using DMA.  It
 280:Generated_Source\PSoC5/cyfitter_cfg.c **** *  pulls data out of the CFG_TD_LISTs to know exactly how/what to configure.
 281:Generated_Source\PSoC5/cyfitter_cfg.c **** *
 282:Generated_Source\PSoC5/cyfitter_cfg.c **** * Parameters:  
 283:Generated_Source\PSoC5/cyfitter_cfg.c **** *   void
 284:Generated_Source\PSoC5/cyfitter_cfg.c **** *
 285:Generated_Source\PSoC5/cyfitter_cfg.c **** * Return:
 286:Generated_Source\PSoC5/cyfitter_cfg.c **** *   void
 287:Generated_Source\PSoC5/cyfitter_cfg.c **** *
 288:Generated_Source\PSoC5/cyfitter_cfg.c **** *******************************************************************************/
 289:Generated_Source\PSoC5/cyfitter_cfg.c **** static void cfg_dma_init(void);
 290:Generated_Source\PSoC5/cyfitter_cfg.c **** static void cfg_dma_init(void)
 291:Generated_Source\PSoC5/cyfitter_cfg.c **** {
 489              		.loc 1 291 0
 490              		.cfi_startproc
 491              		@ args = 0, pretend = 0, frame = 8
 492              		@ frame_needed = 1, uses_anonymous_args = 0
 493              		@ link register save eliminated.
 494 0000 80B4     		push	{r7}
 495              		.cfi_def_cfa_offset 4
 496              		.cfi_offset 7, -4
 497 0002 83B0     		sub	sp, sp, #12
 498              		.cfi_def_cfa_offset 16
 499 0004 00AF     		add	r7, sp, #0
 500              		.cfi_def_cfa_register 7
 292:Generated_Source\PSoC5/cyfitter_cfg.c **** 	/* TD structure for little-endian systems. Does not require endian swap */
 293:Generated_Source\PSoC5/cyfitter_cfg.c **** 	CYPACKED struct td_t {
 294:Generated_Source\PSoC5/cyfitter_cfg.c **** 		uint16 size;
 295:Generated_Source\PSoC5/cyfitter_cfg.c **** 		uint8 next_td_ptr;
 296:Generated_Source\PSoC5/cyfitter_cfg.c **** 		uint8 flags;
 297:Generated_Source\PSoC5/cyfitter_cfg.c **** 		uint16 src;
 298:Generated_Source\PSoC5/cyfitter_cfg.c **** 		uint16 dest;
ARM GAS  C:\Users\David\AppData\Local\Temp\ccOenjIg.s 			page 15


 299:Generated_Source\PSoC5/cyfitter_cfg.c **** 	} CYPACKED_ATTR;
 300:Generated_Source\PSoC5/cyfitter_cfg.c **** 
 301:Generated_Source\PSoC5/cyfitter_cfg.c **** 	/* PHUB_CH1_CFGMEM_CFG0/1 initialization data */
 302:Generated_Source\PSoC5/cyfitter_cfg.c **** 	DMAINITSEC static const uint8 CYCODE CH1_ADDR_DATA0[] = { 0x01u, 0x00u, 0x00u, 0x00u, 0x00u, 0x20u
 303:Generated_Source\PSoC5/cyfitter_cfg.c **** 
 304:Generated_Source\PSoC5/cyfitter_cfg.c **** 	/* PHUB_CH2_CFGMEM_CFG0/1 initialization data */
 305:Generated_Source\PSoC5/cyfitter_cfg.c **** 	DMAINITSEC static const uint8 CYCODE CH2_ADDR_DATA0[] = { 0x01u, 0x00u, 0x00u, 0x00u, 0x00u, 0x20u
 306:Generated_Source\PSoC5/cyfitter_cfg.c **** 
 307:Generated_Source\PSoC5/cyfitter_cfg.c **** 	/* PHUB_CH5_CFGMEM_CFG0/1 initialization data */
 308:Generated_Source\PSoC5/cyfitter_cfg.c **** 	DMAINITSEC static const uint8 CYCODE CH5_ADDR_DATA0[] = { 0x01u, 0x00u, 0x00u, 0x00u, 0x00u, 0x48u
 309:Generated_Source\PSoC5/cyfitter_cfg.c **** 
 310:Generated_Source\PSoC5/cyfitter_cfg.c **** 	/* PHUB_CH6_CFGMEM_CFG0/1 initialization data */
 311:Generated_Source\PSoC5/cyfitter_cfg.c **** 	DMAINITSEC static const uint8 CYCODE CH6_ADDR_DATA0[] = { 0x01u, 0x00u, 0x00u, 0x00u, 0x00u, 0x48u
 312:Generated_Source\PSoC5/cyfitter_cfg.c **** 
 313:Generated_Source\PSoC5/cyfitter_cfg.c **** 	/* Initialization data for each DMA channel's TD registers */
 314:Generated_Source\PSoC5/cyfitter_cfg.c **** 	DMAINITSEC static const uint8 CYCODE DMA_TD_START_CMD[] = { 0x01u, 0x00u, 0x00u, 0x00u, 0x01u };
 315:Generated_Source\PSoC5/cyfitter_cfg.c **** 
 316:Generated_Source\PSoC5/cyfitter_cfg.c **** 	CYALIGNED static uint32 CYXDATA DMA_ZERO_VAL;
 317:Generated_Source\PSoC5/cyfitter_cfg.c **** 
 318:Generated_Source\PSoC5/cyfitter_cfg.c **** 	/* This table holds all of the initialization data necessary for the DMA
 319:Generated_Source\PSoC5/cyfitter_cfg.c **** 	   process to transfer data from the source location to the destination. */
 320:Generated_Source\PSoC5/cyfitter_cfg.c **** 	/* Source addresses can be relocated, but only when in 32bit addresses.
 321:Generated_Source\PSoC5/cyfitter_cfg.c **** 	   Because the standard TD table only has 16bit addresses, we generate a
 322:Generated_Source\PSoC5/cyfitter_cfg.c **** 	   separate CFG_TD_ADDR table for the source addresses that supports 32bit
 323:Generated_Source\PSoC5/cyfitter_cfg.c **** 	   addresses. */
 324:Generated_Source\PSoC5/cyfitter_cfg.c **** 	DMAINITSEC static const struct td_t CYCODE CFG_TD_LIST0[] = {
 325:Generated_Source\PSoC5/cyfitter_cfg.c **** 		/* Size, Next, Flags, Source, Destination */
 326:Generated_Source\PSoC5/cyfitter_cfg.c **** 		{ 8u, 0x02u, 0x23u, (uint16)(uint32)(0u), (uint16)(CYREG_PHUB_CFGMEM1_CFG0) },	/* TD 1 */
 327:Generated_Source\PSoC5/cyfitter_cfg.c **** 		{ 8u, 0x03u, 0x23u, (uint16)(uint32)(0u), (uint16)(CYREG_PHUB_CFGMEM2_CFG0) },	/* TD 2 */
 328:Generated_Source\PSoC5/cyfitter_cfg.c **** 		{ 8u, 0x04u, 0x23u, (uint16)(uint32)(0u), (uint16)(CYREG_PHUB_CFGMEM5_CFG0) },	/* TD 3 */
 329:Generated_Source\PSoC5/cyfitter_cfg.c **** 		{ 8u, 0x05u, 0x23u, (uint16)(uint32)(0u), (uint16)(CYREG_PHUB_CFGMEM6_CFG0) },	/* TD 4 */
 330:Generated_Source\PSoC5/cyfitter_cfg.c **** 		{ 5u, 0x06u, 0x23u, (uint16)(uint32)(0u), (uint16)(CYREG_PHUB_CH1_BASIC_CFG) },	/* TD 5 */
 331:Generated_Source\PSoC5/cyfitter_cfg.c **** 		{ 5u, 0x07u, 0x23u, (uint16)(uint32)(0u), (uint16)(CYREG_PHUB_CH2_BASIC_CFG) },	/* TD 6 */
 332:Generated_Source\PSoC5/cyfitter_cfg.c **** 		{ 5u, 0x08u, 0x23u, (uint16)(uint32)(0u), (uint16)(CYREG_PHUB_CH5_BASIC_CFG) },	/* TD 7 */
 333:Generated_Source\PSoC5/cyfitter_cfg.c **** 		{ 5u, 0xFEu, 0x23u, (uint16)(uint32)(0u), (uint16)(CYREG_PHUB_CH6_BASIC_CFG) },	/* TD 8 */
 334:Generated_Source\PSoC5/cyfitter_cfg.c **** 		{ 32u, 0x0Au, 0x22u, (uint16)(uint32)(0u), (uint16)(CYREG_PRT4_DR) },	/* TD 9 */
 335:Generated_Source\PSoC5/cyfitter_cfg.c **** 		{ 16u, 0x0Bu, 0x22u, (uint16)(uint32)(0u), (uint16)(CYREG_PRT12_DR) },	/* TD 10 */
 336:Generated_Source\PSoC5/cyfitter_cfg.c **** 		{ 16u, 0xFEu, 0x22u, (uint16)(uint32)(0u), (uint16)(CYREG_PRT15_DR) },	/* TD 11 */
 337:Generated_Source\PSoC5/cyfitter_cfg.c **** 		{ 1920u, 0x0Du, 0x22u, (uint16)(uint32)(0u), (uint16)(CYDEV_UCFG_B0_P0_U0_BASE) },	/* TD 12 */
 338:Generated_Source\PSoC5/cyfitter_cfg.c **** 		{ 384u, 0x0Eu, 0x22u, (uint16)(uint32)(0u), (uint16)(CYDEV_UCFG_B0_P4_U0_BASE) },	/* TD 13 */
 339:Generated_Source\PSoC5/cyfitter_cfg.c **** 		{ 128u, 0x0Fu, 0x22u, (uint16)(uint32)(0u), (uint16)(CYDEV_UCFG_B0_P5_U0_BASE) },	/* TD 14 */
 340:Generated_Source\PSoC5/cyfitter_cfg.c **** 		{ 384u, 0x10u, 0x22u, (uint16)(uint32)(0u), (uint16)(CYDEV_UCFG_B0_P6_U0_BASE) },	/* TD 15 */
 341:Generated_Source\PSoC5/cyfitter_cfg.c **** 		{ 512u, 0x11u, 0x22u, (uint16)(uint32)(0u), (uint16)(CYDEV_UCFG_B0_P7_U0_BASE) },	/* TD 16 */
 342:Generated_Source\PSoC5/cyfitter_cfg.c **** 		{ 384u, 0x12u, 0x22u, (uint16)(uint32)(0u), (uint16)(CYDEV_UCFG_B1_P2_U0_BASE) },	/* TD 17 */
 343:Generated_Source\PSoC5/cyfitter_cfg.c **** 		{ 1408u, 0x13u, 0x22u, (uint16)(uint32)(0u), (uint16)(CYDEV_UCFG_B1_P3_U0_BASE) },	/* TD 18 */
 344:Generated_Source\PSoC5/cyfitter_cfg.c **** 		{ 256u, 0x14u, 0x22u, (uint16)(uint32)(0u), (uint16)(CYDEV_UCFG_DSI0_BASE) },	/* TD 19 */
 345:Generated_Source\PSoC5/cyfitter_cfg.c **** 		{ 128u, 0x15u, 0x22u, (uint16)(uint32)(0u), (uint16)(CYDEV_UCFG_DSI5_BASE) },	/* TD 20 */
 346:Generated_Source\PSoC5/cyfitter_cfg.c **** 		{ 128u, 0x16u, 0x22u, (uint16)(uint32)(0u), (uint16)(CYDEV_UCFG_DSI7_BASE) },	/* TD 21 */
 347:Generated_Source\PSoC5/cyfitter_cfg.c **** 		{ 128u, 0x17u, 0x22u, (uint16)(uint32)(0u), (uint16)(CYDEV_UCFG_DSI9_BASE) },	/* TD 22 */
 348:Generated_Source\PSoC5/cyfitter_cfg.c **** 		{ 128u, 0x18u, 0x22u, (uint16)(uint32)(0u), (uint16)(CYDEV_UCFG_DSI12_BASE) },	/* TD 23 */
 349:Generated_Source\PSoC5/cyfitter_cfg.c **** 		{ 128u, 0x19u, 0x22u, (uint16)(uint32)(0u), (uint16)(CYDEV_UCFG_DSI13_BASE) },	/* TD 24 */
 350:Generated_Source\PSoC5/cyfitter_cfg.c **** 		{ 32u, 0xFEu, 0x22u, (uint16)(uint32)(0u), (uint16)(CYREG_BCTL0_MDCLK_EN) },	/* TD 25 */
 351:Generated_Source\PSoC5/cyfitter_cfg.c **** 		{ 7u, 0x1Bu, 0x23u, (uint16)(uint32)(0u), (uint16)(CYDEV_PRTDSI_PRT0_BASE) },	/* TD 26 */
 352:Generated_Source\PSoC5/cyfitter_cfg.c **** 		{ 12u, 0xFEu, 0x23u, (uint16)(uint32)(0u), (uint16)(CYREG_TMR0_CFG0) },	/* TD 27 */
 353:Generated_Source\PSoC5/cyfitter_cfg.c **** 		{ 128u, 0x1Du, 0x23u, (uint16)(uint32)(0u), (uint16)(CYDEV_UCFG_B0_P5_U1_BASE) },	/* TD 28 */
 354:Generated_Source\PSoC5/cyfitter_cfg.c **** 		{ 128u, 0x1Eu, 0x23u, (uint16)(uint32)(0u), (uint16)(CYDEV_UCFG_DSI13_BASE + 0x00000080u) },	/* T
 355:Generated_Source\PSoC5/cyfitter_cfg.c **** 		{ 128u, 0x1Fu, 0x23u, (uint16)(uint32)(0u), (uint16)(CYDEV_UCFG_DSI12_BASE + 0x00000080u) },	/* T
ARM GAS  C:\Users\David\AppData\Local\Temp\ccOenjIg.s 			page 16


 356:Generated_Source\PSoC5/cyfitter_cfg.c **** 		{ 128u, 0x20u, 0x23u, (uint16)(uint32)(0u), (uint16)(CYDEV_UCFG_DSI7_BASE + 0x00000080u) },	/* TD
 357:Generated_Source\PSoC5/cyfitter_cfg.c **** 		{ 128u, 0x21u, 0x23u, (uint16)(uint32)(0u), (uint16)(CYDEV_UCFG_DSI6_BASE) },	/* TD 32 */
 358:Generated_Source\PSoC5/cyfitter_cfg.c **** 		{ 128u, 0x22u, 0x23u, (uint16)(uint32)(0u), (uint16)(CYDEV_UCFG_DSI6_BASE + 0x00000080u) },	/* TD
 359:Generated_Source\PSoC5/cyfitter_cfg.c **** 		{ 128u, 0x23u, 0x23u, (uint16)(uint32)(0u), (uint16)(CYDEV_UCFG_DSI5_BASE + 0x00000080u) },	/* TD
 360:Generated_Source\PSoC5/cyfitter_cfg.c **** 		{ 128u, 0x24u, 0x23u, (uint16)(uint32)(0u), (uint16)(CYDEV_UCFG_DSI4_BASE) },	/* TD 35 */
 361:Generated_Source\PSoC5/cyfitter_cfg.c **** 		{ 128u, 0x25u, 0x23u, (uint16)(uint32)(0u), (uint16)(CYDEV_UCFG_DSI4_BASE + 0x00000080u) },	/* TD
 362:Generated_Source\PSoC5/cyfitter_cfg.c **** 		{ 128u, 0x26u, 0x23u, (uint16)(uint32)(0u), (uint16)(CYDEV_UCFG_B1_P5_ROUTE_BASE + 0x00000080u) }
 363:Generated_Source\PSoC5/cyfitter_cfg.c **** 		{ 128u, 0x27u, 0x23u, (uint16)(uint32)(0u), (uint16)(CYDEV_UCFG_B1_P2_ROUTE_BASE + 0x00000080u) }
 364:Generated_Source\PSoC5/cyfitter_cfg.c **** 		{ 128u, 0x28u, 0x23u, (uint16)(uint32)(0u), (uint16)(CYDEV_UCFG_B0_P4_ROUTE_BASE + 0x00000080u) }
 365:Generated_Source\PSoC5/cyfitter_cfg.c **** 		{ 128u, 0x29u, 0x23u, (uint16)(uint32)(0u), (uint16)(CYDEV_UCFG_B0_P3_ROUTE_BASE + 0x00000080u) }
 366:Generated_Source\PSoC5/cyfitter_cfg.c **** 		{ 128u, 0x2Au, 0x23u, (uint16)(uint32)(0u), (uint16)(CYDEV_UCFG_B0_P5_ROUTE_BASE) },	/* TD 41 */
 367:Generated_Source\PSoC5/cyfitter_cfg.c **** 		{ 128u, 0x2Bu, 0x23u, (uint16)(uint32)(0u), (uint16)(CYDEV_UCFG_B0_P5_ROUTE_BASE + 0x00000080u) }
 368:Generated_Source\PSoC5/cyfitter_cfg.c **** 		{ 128u, 0x2Cu, 0x23u, (uint16)(uint32)(0u), (uint16)(CYDEV_UCFG_B0_P6_ROUTE_BASE + 0x00000080u) }
 369:Generated_Source\PSoC5/cyfitter_cfg.c **** 		{ 128u, 0x2Du, 0x23u, (uint16)(uint32)(0u), (uint16)(CYDEV_UCFG_DSI9_BASE + 0x00000080u) },	/* TD
 370:Generated_Source\PSoC5/cyfitter_cfg.c **** 		{ 128u, 0x2Eu, 0x23u, (uint16)(uint32)(0u), (uint16)(CYDEV_UCFG_DSI8_BASE) },	/* TD 45 */
 371:Generated_Source\PSoC5/cyfitter_cfg.c **** 		{ 128u, 0x2Fu, 0x23u, (uint16)(uint32)(0u), (uint16)(CYDEV_UCFG_DSI8_BASE + 0x00000080u) },	/* TD
 372:Generated_Source\PSoC5/cyfitter_cfg.c **** 		{ 128u, 0x30u, 0x23u, (uint16)(uint32)(0u), (uint16)(CYDEV_UCFG_DSI3_BASE) },	/* TD 47 */
 373:Generated_Source\PSoC5/cyfitter_cfg.c **** 		{ 128u, 0x31u, 0x23u, (uint16)(uint32)(0u), (uint16)(CYDEV_UCFG_DSI3_BASE + 0x00000080u) },	/* TD
 374:Generated_Source\PSoC5/cyfitter_cfg.c **** 		{ 128u, 0x32u, 0x23u, (uint16)(uint32)(0u), (uint16)(CYDEV_UCFG_DSI2_BASE) },	/* TD 49 */
 375:Generated_Source\PSoC5/cyfitter_cfg.c **** 		{ 128u, 0x33u, 0x23u, (uint16)(uint32)(0u), (uint16)(CYDEV_UCFG_DSI2_BASE + 0x00000080u) },	/* TD
 376:Generated_Source\PSoC5/cyfitter_cfg.c **** 		{ 128u, 0x34u, 0x23u, (uint16)(uint32)(0u), (uint16)(CYDEV_UCFG_DSI1_BASE) },	/* TD 51 */
 377:Generated_Source\PSoC5/cyfitter_cfg.c **** 		{ 128u, 0xFEu, 0x23u, (uint16)(uint32)(0u), (uint16)(CYDEV_UCFG_DSI1_BASE + 0x00000080u) },	/* TD
 378:Generated_Source\PSoC5/cyfitter_cfg.c **** 	};
 379:Generated_Source\PSoC5/cyfitter_cfg.c **** 
 380:Generated_Source\PSoC5/cyfitter_cfg.c **** 	/* Source addresses can be relocated, but only when in 32bit addresses.
 381:Generated_Source\PSoC5/cyfitter_cfg.c **** 	   Because the standard TD table only has 16bit addresses, we generate a
 382:Generated_Source\PSoC5/cyfitter_cfg.c **** 	   separate table for the source addresses that does use 32bit addresses. This
 383:Generated_Source\PSoC5/cyfitter_cfg.c **** 	   table will be re-merged with the corresponding CFG_TD_LIST table during
 384:Generated_Source\PSoC5/cyfitter_cfg.c **** 	   initialization. */
 385:Generated_Source\PSoC5/cyfitter_cfg.c **** 	static const void * const CFG_TD_ADDR0[] = {
 386:Generated_Source\PSoC5/cyfitter_cfg.c **** 		(const void *)(CH1_ADDR_DATA0),	/* TD 1 */
 387:Generated_Source\PSoC5/cyfitter_cfg.c **** 		(const void *)(CH2_ADDR_DATA0),	/* TD 2 */
 388:Generated_Source\PSoC5/cyfitter_cfg.c **** 		(const void *)(CH5_ADDR_DATA0),	/* TD 3 */
 389:Generated_Source\PSoC5/cyfitter_cfg.c **** 		(const void *)(CH6_ADDR_DATA0),	/* TD 4 */
 390:Generated_Source\PSoC5/cyfitter_cfg.c **** 		(const void *)(DMA_TD_START_CMD),	/* TD 5 */
 391:Generated_Source\PSoC5/cyfitter_cfg.c **** 		(const void *)(DMA_TD_START_CMD),	/* TD 6 */
 392:Generated_Source\PSoC5/cyfitter_cfg.c **** 		(const void *)(DMA_TD_START_CMD),	/* TD 7 */
 393:Generated_Source\PSoC5/cyfitter_cfg.c **** 		(const void *)(DMA_TD_START_CMD),	/* TD 8 */
 394:Generated_Source\PSoC5/cyfitter_cfg.c **** 		(const void *)(&DMA_ZERO_VAL),	/* TD 9 */
 395:Generated_Source\PSoC5/cyfitter_cfg.c **** 		(const void *)(&DMA_ZERO_VAL),	/* TD 10 */
 396:Generated_Source\PSoC5/cyfitter_cfg.c **** 		(const void *)(&DMA_ZERO_VAL),	/* TD 11 */
 397:Generated_Source\PSoC5/cyfitter_cfg.c **** 		(const void *)(&DMA_ZERO_VAL),	/* TD 12 */
 398:Generated_Source\PSoC5/cyfitter_cfg.c **** 		(const void *)(&DMA_ZERO_VAL),	/* TD 13 */
 399:Generated_Source\PSoC5/cyfitter_cfg.c **** 		(const void *)(&DMA_ZERO_VAL),	/* TD 14 */
 400:Generated_Source\PSoC5/cyfitter_cfg.c **** 		(const void *)(&DMA_ZERO_VAL),	/* TD 15 */
 401:Generated_Source\PSoC5/cyfitter_cfg.c **** 		(const void *)(&DMA_ZERO_VAL),	/* TD 16 */
 402:Generated_Source\PSoC5/cyfitter_cfg.c **** 		(const void *)(&DMA_ZERO_VAL),	/* TD 17 */
 403:Generated_Source\PSoC5/cyfitter_cfg.c **** 		(const void *)(&DMA_ZERO_VAL),	/* TD 18 */
 404:Generated_Source\PSoC5/cyfitter_cfg.c **** 		(const void *)(&DMA_ZERO_VAL),	/* TD 19 */
 405:Generated_Source\PSoC5/cyfitter_cfg.c **** 		(const void *)(&DMA_ZERO_VAL),	/* TD 20 */
 406:Generated_Source\PSoC5/cyfitter_cfg.c **** 		(const void *)(&DMA_ZERO_VAL),	/* TD 21 */
 407:Generated_Source\PSoC5/cyfitter_cfg.c **** 		(const void *)(&DMA_ZERO_VAL),	/* TD 22 */
 408:Generated_Source\PSoC5/cyfitter_cfg.c **** 		(const void *)(&DMA_ZERO_VAL),	/* TD 23 */
 409:Generated_Source\PSoC5/cyfitter_cfg.c **** 		(const void *)(&DMA_ZERO_VAL),	/* TD 24 */
 410:Generated_Source\PSoC5/cyfitter_cfg.c **** 		(const void *)(&DMA_ZERO_VAL),	/* TD 25 */
 411:Generated_Source\PSoC5/cyfitter_cfg.c **** 		(const void *)(BS_IOPORT_0_VAL),	/* TD 26 */
 412:Generated_Source\PSoC5/cyfitter_cfg.c **** 		(const void *)(BS_TMR0_VAL),	/* TD 27 */
ARM GAS  C:\Users\David\AppData\Local\Temp\ccOenjIg.s 			page 17


 413:Generated_Source\PSoC5/cyfitter_cfg.c **** 		(const void *)(BS_UDB_0_3_1_CONFIG_VAL),	/* TD 28 */
 414:Generated_Source\PSoC5/cyfitter_cfg.c **** 		(const void *)(BS_DSI0_0_HV_ROUTING_VAL),	/* TD 29 */
 415:Generated_Source\PSoC5/cyfitter_cfg.c **** 		(const void *)(BS_DSI0_1_HV_ROUTING_VAL),	/* TD 30 */
 416:Generated_Source\PSoC5/cyfitter_cfg.c **** 		(const void *)(BS_DSI0_2_HV_ROUTING_VAL),	/* TD 31 */
 417:Generated_Source\PSoC5/cyfitter_cfg.c **** 		(const void *)(BS_DSISWITCH_0_3_VAL),	/* TD 32 */
 418:Generated_Source\PSoC5/cyfitter_cfg.c **** 		(const void *)(BS_DSI0_3_HV_ROUTING_VAL),	/* TD 33 */
 419:Generated_Source\PSoC5/cyfitter_cfg.c **** 		(const void *)(BS_DSI0_4_HV_ROUTING_VAL),	/* TD 34 */
 420:Generated_Source\PSoC5/cyfitter_cfg.c **** 		(const void *)(BS_DSISWITCH_0_5_VAL),	/* TD 35 */
 421:Generated_Source\PSoC5/cyfitter_cfg.c **** 		(const void *)(BS_DSI0_5_HV_ROUTING_VAL),	/* TD 36 */
 422:Generated_Source\PSoC5/cyfitter_cfg.c **** 		(const void *)(BS_UDB_1_0_HV_ROUTING_VAL),	/* TD 37 */
 423:Generated_Source\PSoC5/cyfitter_cfg.c **** 		(const void *)(BS_UDB_2_0_HV_ROUTING_VAL),	/* TD 38 */
 424:Generated_Source\PSoC5/cyfitter_cfg.c **** 		(const void *)(BS_UDB_1_2_HV_ROUTING_VAL),	/* TD 39 */
 425:Generated_Source\PSoC5/cyfitter_cfg.c **** 		(const void *)(BS_UDB_2_2_HV_ROUTING_VAL),	/* TD 40 */
 426:Generated_Source\PSoC5/cyfitter_cfg.c **** 		(const void *)(BS_UDBSWITCH_0_3_VAL),	/* TD 41 */
 427:Generated_Source\PSoC5/cyfitter_cfg.c **** 		(const void *)(BS_UDB_1_3_HV_ROUTING_VAL),	/* TD 42 */
 428:Generated_Source\PSoC5/cyfitter_cfg.c **** 		(const void *)(BS_UDB_1_4_HV_ROUTING_VAL),	/* TD 43 */
 429:Generated_Source\PSoC5/cyfitter_cfg.c **** 		(const void *)(BS_DSI3_0_HV_ROUTING_VAL),	/* TD 44 */
 430:Generated_Source\PSoC5/cyfitter_cfg.c **** 		(const void *)(BS_DSISWITCH_1_1_VAL),	/* TD 45 */
 431:Generated_Source\PSoC5/cyfitter_cfg.c **** 		(const void *)(BS_DSI3_1_HV_ROUTING_VAL),	/* TD 46 */
 432:Generated_Source\PSoC5/cyfitter_cfg.c **** 		(const void *)(BS_DSISWITCH_1_2_VAL),	/* TD 47 */
 433:Generated_Source\PSoC5/cyfitter_cfg.c **** 		(const void *)(BS_DSI3_2_HV_ROUTING_VAL),	/* TD 48 */
 434:Generated_Source\PSoC5/cyfitter_cfg.c **** 		(const void *)(BS_DSISWITCH_1_3_VAL),	/* TD 49 */
 435:Generated_Source\PSoC5/cyfitter_cfg.c **** 		(const void *)(BS_DSI3_3_HV_ROUTING_VAL),	/* TD 50 */
 436:Generated_Source\PSoC5/cyfitter_cfg.c **** 		(const void *)(BS_DSISWITCH_1_4_VAL),	/* TD 51 */
 437:Generated_Source\PSoC5/cyfitter_cfg.c **** 		(const void *)(BS_DSI3_4_HV_ROUTING_VAL),	/* TD 52 */
 438:Generated_Source\PSoC5/cyfitter_cfg.c **** 	};
 439:Generated_Source\PSoC5/cyfitter_cfg.c **** 
 440:Generated_Source\PSoC5/cyfitter_cfg.c **** 
 441:Generated_Source\PSoC5/cyfitter_cfg.c **** 	uint32 i;
 442:Generated_Source\PSoC5/cyfitter_cfg.c **** 
 443:Generated_Source\PSoC5/cyfitter_cfg.c **** 	DMA_ZERO_VAL = 0u;
 501              		.loc 1 443 0
 502 0006 434B     		ldr	r3, .L15
 503 0008 0022     		movs	r2, #0
 504 000a 1A60     		str	r2, [r3]
 444:Generated_Source\PSoC5/cyfitter_cfg.c **** 	CY_SET_REG8((void CYXDATA *)CYREG_PHUB_CFGMEM0_CFG0, 0x10u);	/* set burstcnt */
 505              		.loc 1 444 0
 506 000c 424B     		ldr	r3, .L15+4
 507 000e 1022     		movs	r2, #16
 508 0010 1A70     		strb	r2, [r3]
 445:Generated_Source\PSoC5/cyfitter_cfg.c **** 	CY_SET_REG8((void CYXDATA *)CYREG_PHUB_CH0_BASIC_CFG, 0x01u);	/* enable ch0 */
 509              		.loc 1 445 0
 510 0012 424B     		ldr	r3, .L15+8
 511 0014 0122     		movs	r2, #1
 512 0016 1A70     		strb	r2, [r3]
 446:Generated_Source\PSoC5/cyfitter_cfg.c **** 	CY_SET_REG8((void CYXDATA *)(CYREG_PHUB_CH0_BASIC_STATUS+1u), 0x00u);	/* set first TD to 0 */
 513              		.loc 1 446 0
 514 0018 414B     		ldr	r3, .L15+12
 515 001a 0022     		movs	r2, #0
 516 001c 1A70     		strb	r2, [r3]
 447:Generated_Source\PSoC5/cyfitter_cfg.c **** 	CY_SET_REG16((void CYXDATA *)CYREG_PHUB_TDMEM0_ORIG_TD0, 52u*8u);	/* transfer size */
 517              		.loc 1 447 0
 518 001e 414B     		ldr	r3, .L15+16
 519 0020 4FF4D072 		mov	r2, #416
 520 0024 1A80     		strh	r2, [r3]	@ movhi
 448:Generated_Source\PSoC5/cyfitter_cfg.c **** 	CY_SET_REG8((void CYXDATA *)(CYREG_PHUB_TDMEM0_ORIG_TD0+2u), 0x01u);	/* set next TD to 1 */
 521              		.loc 1 448 0
ARM GAS  C:\Users\David\AppData\Local\Temp\ccOenjIg.s 			page 18


 522 0026 404B     		ldr	r3, .L15+20
 523 0028 0122     		movs	r2, #1
 524 002a 1A70     		strb	r2, [r3]
 449:Generated_Source\PSoC5/cyfitter_cfg.c **** 	CY_SET_REG8((void CYXDATA *)(CYREG_PHUB_TDMEM0_ORIG_TD0+3u), 0x03u);	/* set TD flags */
 525              		.loc 1 449 0
 526 002c 3F4B     		ldr	r3, .L15+24
 527 002e 0322     		movs	r2, #3
 528 0030 1A70     		strb	r2, [r3]
 450:Generated_Source\PSoC5/cyfitter_cfg.c **** 	CY_SET_REG16((void CYXDATA *)CYREG_PHUB_TDMEM0_ORIG_TD1, (uint16)((uint32)CFG_TD_LIST0 & 0x0000FFF
 529              		.loc 1 450 0
 530 0032 3F4B     		ldr	r3, .L15+28
 531 0034 3F4A     		ldr	r2, .L15+32
 532 0036 92B2     		uxth	r2, r2
 533 0038 1A80     		strh	r2, [r3]	@ movhi
 451:Generated_Source\PSoC5/cyfitter_cfg.c **** 	CY_SET_REG16((void CYXDATA *)(CYREG_PHUB_TDMEM0_ORIG_TD1+2u), CYDEV_PHUB_TDMEM1_BASE);	/* set td0'
 534              		.loc 1 451 0
 535 003a 3F4B     		ldr	r3, .L15+36
 536 003c 47F60802 		movw	r2, #30728
 537 0040 1A80     		strh	r2, [r3]	@ movhi
 452:Generated_Source\PSoC5/cyfitter_cfg.c **** 	CY_SET_REG16((void CYXDATA *)CYREG_PHUB_CFGMEM0_CFG1, (uint16)(CYDEV_FLASH_BASE >> 16));	/* set ch
 538              		.loc 1 452 0
 539 0042 3E4B     		ldr	r3, .L15+40
 540 0044 0022     		movs	r2, #0
 541 0046 1A80     		strh	r2, [r3]	@ movhi
 453:Generated_Source\PSoC5/cyfitter_cfg.c **** 	CY_SET_REG16((void CYXDATA *)(CYREG_PHUB_CFGMEM0_CFG1+2u), (uint16)(CYDEV_PHUB_TDMEM1_BASE >> 16))
 542              		.loc 1 453 0
 543 0048 3D4B     		ldr	r3, .L15+44
 544 004a 4FF48042 		mov	r2, #16384
 545 004e 1A80     		strh	r2, [r3]	@ movhi
 454:Generated_Source\PSoC5/cyfitter_cfg.c **** 	CY_SET_REG8((void CYXDATA *)(CYREG_PHUB_CH1_BASIC_STATUS+1u), 0x09u);	/* ch1 first TD: 9 */
 546              		.loc 1 454 0
 547 0050 3C4B     		ldr	r3, .L15+48
 548 0052 0922     		movs	r2, #9
 549 0054 1A70     		strb	r2, [r3]
 455:Generated_Source\PSoC5/cyfitter_cfg.c **** 	CY_SET_REG8((void CYXDATA *)(CYREG_PHUB_CH2_BASIC_STATUS+1u), 0x0Cu);	/* ch2 first TD: 12 */
 550              		.loc 1 455 0
 551 0056 3C4B     		ldr	r3, .L15+52
 552 0058 0C22     		movs	r2, #12
 553 005a 1A70     		strb	r2, [r3]
 456:Generated_Source\PSoC5/cyfitter_cfg.c **** 	CY_SET_REG8((void CYXDATA *)(CYREG_PHUB_CH5_BASIC_STATUS+1u), 0x1Au);	/* ch5 first TD: 26 */
 554              		.loc 1 456 0
 555 005c 3B4B     		ldr	r3, .L15+56
 556 005e 1A22     		movs	r2, #26
 557 0060 1A70     		strb	r2, [r3]
 457:Generated_Source\PSoC5/cyfitter_cfg.c **** 	CY_SET_REG8((void CYXDATA *)(CYREG_PHUB_CH6_BASIC_STATUS+1u), 0x1Cu);	/* ch6 first TD: 28 */
 558              		.loc 1 457 0
 559 0062 3B4B     		ldr	r3, .L15+60
 560 0064 1C22     		movs	r2, #28
 561 0066 1A70     		strb	r2, [r3]
 458:Generated_Source\PSoC5/cyfitter_cfg.c **** 
 459:Generated_Source\PSoC5/cyfitter_cfg.c **** 	CY_CFG_MEMORY_BARRIER();
 562              		.loc 1 459 0
 563 0068 BFF35F8F 		dmb	sy
 460:Generated_Source\PSoC5/cyfitter_cfg.c **** 	CY_SET_REG8((void CYXDATA *)CYREG_PHUB_CH0_ACTION, 0x01u); /* cpu_req */
 564              		.loc 1 460 0
 565 006c 394B     		ldr	r3, .L15+64
 566 006e 0122     		movs	r2, #1
ARM GAS  C:\Users\David\AppData\Local\Temp\ccOenjIg.s 			page 19


 567 0070 1A70     		strb	r2, [r3]
 461:Generated_Source\PSoC5/cyfitter_cfg.c **** 	CY_CFG_MEMORY_BARRIER();
 568              		.loc 1 461 0
 569 0072 BFF35F8F 		dmb	sy
 462:Generated_Source\PSoC5/cyfitter_cfg.c **** 
 463:Generated_Source\PSoC5/cyfitter_cfg.c **** 	/* Wait for TDs to be copied into TDMEM */
 464:Generated_Source\PSoC5/cyfitter_cfg.c **** 	while (CY_GET_REG16((void CYXDATA *)CYREG_PHUB_TDMEM0_ORIG_TD0) != 0u) { }
 570              		.loc 1 464 0
 571 0076 00BF     		nop
 572              	.L7:
 573              		.loc 1 464 0 is_stmt 0 discriminator 1
 574 0078 2A4B     		ldr	r3, .L15+16
 575 007a 1B88     		ldrh	r3, [r3]	@ movhi
 576 007c 9BB2     		uxth	r3, r3
 577 007e 002B     		cmp	r3, #0
 578 0080 FAD1     		bne	.L7
 465:Generated_Source\PSoC5/cyfitter_cfg.c **** 
 466:Generated_Source\PSoC5/cyfitter_cfg.c **** 	/* Recombine TD source table (CFG_TD_ADDR0) with full TD table (CFG_TD_LIST0) */
 467:Generated_Source\PSoC5/cyfitter_cfg.c **** 	for (i = 0u; i < 52u; i++)
 579              		.loc 1 467 0 is_stmt 1
 580 0082 0023     		movs	r3, #0
 581 0084 7B60     		str	r3, [r7, #4]
 582 0086 0DE0     		b	.L8
 583              	.L9:
 468:Generated_Source\PSoC5/cyfitter_cfg.c **** 	{
 469:Generated_Source\PSoC5/cyfitter_cfg.c **** 		CY_SET_REG16((void CYXDATA *)(CYREG_PHUB_TDMEM1_ORIG_TD1 + (sizeof(struct td_t)*i)), (uint16)(uin
 584              		.loc 1 469 0 discriminator 3
 585 0088 7B68     		ldr	r3, [r7, #4]
 586 008a DA00     		lsls	r2, r3, #3
 587 008c 324B     		ldr	r3, .L15+68
 588 008e 1344     		add	r3, r3, r2
 589 0090 1946     		mov	r1, r3
 590 0092 324A     		ldr	r2, .L15+72
 591 0094 7B68     		ldr	r3, [r7, #4]
 592 0096 52F82330 		ldr	r3, [r2, r3, lsl #2]
 593 009a 9BB2     		uxth	r3, r3
 594 009c 0B80     		strh	r3, [r1]	@ movhi
 467:Generated_Source\PSoC5/cyfitter_cfg.c **** 	{
 595              		.loc 1 467 0 discriminator 3
 596 009e 7B68     		ldr	r3, [r7, #4]
 597 00a0 0133     		adds	r3, r3, #1
 598 00a2 7B60     		str	r3, [r7, #4]
 599              	.L8:
 467:Generated_Source\PSoC5/cyfitter_cfg.c **** 	{
 600              		.loc 1 467 0 is_stmt 0 discriminator 1
 601 00a4 7B68     		ldr	r3, [r7, #4]
 602 00a6 332B     		cmp	r3, #51
 603 00a8 EED9     		bls	.L9
 470:Generated_Source\PSoC5/cyfitter_cfg.c **** 	}
 471:Generated_Source\PSoC5/cyfitter_cfg.c **** 
 472:Generated_Source\PSoC5/cyfitter_cfg.c **** 	CY_CFG_MEMORY_BARRIER();
 604              		.loc 1 472 0 is_stmt 1
 605 00aa BFF35F8F 		dmb	sy
 473:Generated_Source\PSoC5/cyfitter_cfg.c **** 	CY_SET_REG8((void CYXDATA *)CYREG_PHUB_CH0_ACTION, 0x01u); /* cpu_req */
 606              		.loc 1 473 0
 607 00ae 294B     		ldr	r3, .L15+64
 608 00b0 0122     		movs	r2, #1
ARM GAS  C:\Users\David\AppData\Local\Temp\ccOenjIg.s 			page 20


 609 00b2 1A70     		strb	r2, [r3]
 474:Generated_Source\PSoC5/cyfitter_cfg.c **** 	CY_CFG_MEMORY_BARRIER();
 610              		.loc 1 474 0
 611 00b4 BFF35F8F 		dmb	sy
 475:Generated_Source\PSoC5/cyfitter_cfg.c **** 
 476:Generated_Source\PSoC5/cyfitter_cfg.c **** 	/* Wait for all DMA transfers to complete */
 477:Generated_Source\PSoC5/cyfitter_cfg.c **** 	while(0u != (CY_GET_REG8((void CYXDATA *)CYREG_PHUB_CH0_BASIC_STATUS) & 0x01u)){}
 612              		.loc 1 477 0
 613 00b8 00BF     		nop
 614              	.L10:
 615              		.loc 1 477 0 is_stmt 0 discriminator 1
 616 00ba 294B     		ldr	r3, .L15+76
 617 00bc 1B78     		ldrb	r3, [r3]
 618 00be DBB2     		uxtb	r3, r3
 619 00c0 03F00103 		and	r3, r3, #1
 620 00c4 002B     		cmp	r3, #0
 621 00c6 F8D1     		bne	.L10
 478:Generated_Source\PSoC5/cyfitter_cfg.c **** 	while(0u != (CY_GET_REG8((void CYXDATA *)CYREG_PHUB_CH1_BASIC_STATUS) & 0x01u)){}
 622              		.loc 1 478 0 is_stmt 1
 623 00c8 00BF     		nop
 624              	.L11:
 625              		.loc 1 478 0 is_stmt 0 discriminator 1
 626 00ca 264B     		ldr	r3, .L15+80
 627 00cc 1B78     		ldrb	r3, [r3]
 628 00ce DBB2     		uxtb	r3, r3
 629 00d0 03F00103 		and	r3, r3, #1
 630 00d4 002B     		cmp	r3, #0
 631 00d6 F8D1     		bne	.L11
 479:Generated_Source\PSoC5/cyfitter_cfg.c **** 	while(0u != (CY_GET_REG8((void CYXDATA *)CYREG_PHUB_CH2_BASIC_STATUS) & 0x01u)){}
 632              		.loc 1 479 0 is_stmt 1
 633 00d8 00BF     		nop
 634              	.L12:
 635              		.loc 1 479 0 is_stmt 0 discriminator 1
 636 00da 234B     		ldr	r3, .L15+84
 637 00dc 1B78     		ldrb	r3, [r3]
 638 00de DBB2     		uxtb	r3, r3
 639 00e0 03F00103 		and	r3, r3, #1
 640 00e4 002B     		cmp	r3, #0
 641 00e6 F8D1     		bne	.L12
 480:Generated_Source\PSoC5/cyfitter_cfg.c **** 	while(0u != (CY_GET_REG8((void CYXDATA *)CYREG_PHUB_CH5_BASIC_STATUS) & 0x01u)){}
 642              		.loc 1 480 0 is_stmt 1
 643 00e8 00BF     		nop
 644              	.L13:
 645              		.loc 1 480 0 is_stmt 0 discriminator 1
 646 00ea 204B     		ldr	r3, .L15+88
 647 00ec 1B78     		ldrb	r3, [r3]
 648 00ee DBB2     		uxtb	r3, r3
 649 00f0 03F00103 		and	r3, r3, #1
 650 00f4 002B     		cmp	r3, #0
 651 00f6 F8D1     		bne	.L13
 481:Generated_Source\PSoC5/cyfitter_cfg.c **** 	while(0u != (CY_GET_REG8((void CYXDATA *)CYREG_PHUB_CH6_BASIC_STATUS) & 0x01u)){}
 652              		.loc 1 481 0 is_stmt 1
 653 00f8 00BF     		nop
 654              	.L14:
 655              		.loc 1 481 0 is_stmt 0 discriminator 1
 656 00fa 1D4B     		ldr	r3, .L15+92
 657 00fc 1B78     		ldrb	r3, [r3]
ARM GAS  C:\Users\David\AppData\Local\Temp\ccOenjIg.s 			page 21


 658 00fe DBB2     		uxtb	r3, r3
 659 0100 03F00103 		and	r3, r3, #1
 660 0104 002B     		cmp	r3, #0
 661 0106 F8D1     		bne	.L14
 482:Generated_Source\PSoC5/cyfitter_cfg.c **** 
 483:Generated_Source\PSoC5/cyfitter_cfg.c **** 
 484:Generated_Source\PSoC5/cyfitter_cfg.c **** }
 662              		.loc 1 484 0 is_stmt 1
 663 0108 00BF     		nop
 664 010a 0C37     		adds	r7, r7, #12
 665              		.cfi_def_cfa_offset 4
 666 010c BD46     		mov	sp, r7
 667              		.cfi_def_cfa_register 13
 668              		@ sp needed
 669 010e 80BC     		pop	{r7}
 670              		.cfi_restore 7
 671              		.cfi_def_cfa_offset 0
 672 0110 7047     		bx	lr
 673              	.L16:
 674 0112 00BF     		.align	2
 675              	.L15:
 676 0114 00000000 		.word	DMA_ZERO_VAL.4993
 677 0118 00760040 		.word	1073772032
 678 011c 10700040 		.word	1073770512
 679 0120 19700040 		.word	1073770521
 680 0124 00780040 		.word	1073772544
 681 0128 02780040 		.word	1073772546
 682 012c 03780040 		.word	1073772547
 683 0130 04780040 		.word	1073772548
 684 0134 28000000 		.word	CFG_TD_LIST0.4994
 685 0138 06780040 		.word	1073772550
 686 013c 04760040 		.word	1073772036
 687 0140 06760040 		.word	1073772038
 688 0144 29700040 		.word	1073770537
 689 0148 39700040 		.word	1073770553
 690 014c 69700040 		.word	1073770601
 691 0150 79700040 		.word	1073770617
 692 0154 14700040 		.word	1073770516
 693 0158 0C780040 		.word	1073772556
 694 015c 20000000 		.word	CFG_TD_ADDR0.4995
 695 0160 18700040 		.word	1073770520
 696 0164 28700040 		.word	1073770536
 697 0168 38700040 		.word	1073770552
 698 016c 68700040 		.word	1073770600
 699 0170 78700040 		.word	1073770616
 700              		.cfi_endproc
 701              	.LFE4:
 702              		.size	cfg_dma_init, .-cfg_dma_init
 703              		.section	.text.ClockSetup,"ax",%progbits
 704              		.align	2
 705              		.thumb
 706              		.thumb_func
 707              		.type	ClockSetup, %function
 708              	ClockSetup:
 709              	.LFB5:
 485:Generated_Source\PSoC5/cyfitter_cfg.c **** /*******************************************************************************
 486:Generated_Source\PSoC5/cyfitter_cfg.c **** * Function Name: ClockSetup
ARM GAS  C:\Users\David\AppData\Local\Temp\ccOenjIg.s 			page 22


 487:Generated_Source\PSoC5/cyfitter_cfg.c **** ********************************************************************************
 488:Generated_Source\PSoC5/cyfitter_cfg.c **** *
 489:Generated_Source\PSoC5/cyfitter_cfg.c **** * Summary:
 490:Generated_Source\PSoC5/cyfitter_cfg.c **** *  Performs the initialization of all of the clocks in the device based on the
 491:Generated_Source\PSoC5/cyfitter_cfg.c **** *  settings in the Clock tab of the DWR.  This includes enabling the requested
 492:Generated_Source\PSoC5/cyfitter_cfg.c **** *  clocks and setting the necessary dividers to produce the desired frequency. 
 493:Generated_Source\PSoC5/cyfitter_cfg.c **** *
 494:Generated_Source\PSoC5/cyfitter_cfg.c **** * Parameters:
 495:Generated_Source\PSoC5/cyfitter_cfg.c **** *  void
 496:Generated_Source\PSoC5/cyfitter_cfg.c **** *
 497:Generated_Source\PSoC5/cyfitter_cfg.c **** * Return:
 498:Generated_Source\PSoC5/cyfitter_cfg.c **** *  void
 499:Generated_Source\PSoC5/cyfitter_cfg.c **** *
 500:Generated_Source\PSoC5/cyfitter_cfg.c **** *******************************************************************************/
 501:Generated_Source\PSoC5/cyfitter_cfg.c **** static void ClockSetup(void);
 502:Generated_Source\PSoC5/cyfitter_cfg.c **** static void ClockSetup(void)
 503:Generated_Source\PSoC5/cyfitter_cfg.c **** {
 710              		.loc 1 503 0
 711              		.cfi_startproc
 712              		@ args = 0, pretend = 0, frame = 8
 713              		@ frame_needed = 1, uses_anonymous_args = 0
 714 0000 80B5     		push	{r7, lr}
 715              		.cfi_def_cfa_offset 8
 716              		.cfi_offset 7, -8
 717              		.cfi_offset 14, -4
 718 0002 82B0     		sub	sp, sp, #8
 719              		.cfi_def_cfa_offset 16
 720 0004 00AF     		add	r7, sp, #0
 721              		.cfi_def_cfa_register 7
 504:Generated_Source\PSoC5/cyfitter_cfg.c **** 	uint32 timeout;
 505:Generated_Source\PSoC5/cyfitter_cfg.c **** 	uint8 pllLock;
 506:Generated_Source\PSoC5/cyfitter_cfg.c **** 
 507:Generated_Source\PSoC5/cyfitter_cfg.c **** 
 508:Generated_Source\PSoC5/cyfitter_cfg.c **** 	/* Configure Digital Clocks based on settings from Clock DWR */
 509:Generated_Source\PSoC5/cyfitter_cfg.c **** 	CY_SET_XTND_REG16((void CYFAR *)(CYREG_CLKDIST_DCFG0_CFG0), 0x0000u);
 722              		.loc 1 509 0
 723 0006 3C4B     		ldr	r3, .L22
 724 0008 0022     		movs	r2, #0
 725 000a 1A80     		strh	r2, [r3]	@ movhi
 510:Generated_Source\PSoC5/cyfitter_cfg.c **** 	CY_SET_XTND_REG8((void CYFAR *)(CYREG_CLKDIST_DCFG0_CFG0 + 0x2u), 0x50u);
 726              		.loc 1 510 0
 727 000c 3B4B     		ldr	r3, .L22+4
 728 000e 5022     		movs	r2, #80
 729 0010 1A70     		strb	r2, [r3]
 511:Generated_Source\PSoC5/cyfitter_cfg.c **** 
 512:Generated_Source\PSoC5/cyfitter_cfg.c **** 	/* Configure Analog Clocks based on settings from Clock DWR */
 513:Generated_Source\PSoC5/cyfitter_cfg.c **** 	CYCONFIGCPY((void CYFAR *)(CYREG_CLKDIST_ACFG0_CFG0), (const void CYFAR *)(BS_CYDEV_CLKDIST_ACFG0_
 730              		.loc 1 513 0
 731 0012 0422     		movs	r2, #4
 732 0014 3A49     		ldr	r1, .L22+8
 733 0016 3B48     		ldr	r0, .L22+12
 734 0018 FFF7FEFF 		bl	CYCONFIGCPY
 514:Generated_Source\PSoC5/cyfitter_cfg.c **** 
 515:Generated_Source\PSoC5/cyfitter_cfg.c **** 	/* Configure ILO based on settings from Clock DWR */
 516:Generated_Source\PSoC5/cyfitter_cfg.c **** 	CY_SET_XTND_REG8((void CYFAR *)(CYREG_SLOWCLK_ILO_CR0), 0x02u);
 735              		.loc 1 516 0
 736 001c 3A4B     		ldr	r3, .L22+16
ARM GAS  C:\Users\David\AppData\Local\Temp\ccOenjIg.s 			page 23


 737 001e 0222     		movs	r2, #2
 738 0020 1A70     		strb	r2, [r3]
 517:Generated_Source\PSoC5/cyfitter_cfg.c **** 	CY_SET_XTND_REG8((void CYFAR *)(CYREG_CLKDIST_CR), 0x08u);
 739              		.loc 1 517 0
 740 0022 4FF04023 		mov	r3, #1073758208
 741 0026 0822     		movs	r2, #8
 742 0028 1A70     		strb	r2, [r3]
 518:Generated_Source\PSoC5/cyfitter_cfg.c **** 
 519:Generated_Source\PSoC5/cyfitter_cfg.c **** 	/* Configure IMO based on settings from Clock DWR */
 520:Generated_Source\PSoC5/cyfitter_cfg.c **** 	CY_SET_XTND_REG8((void CYFAR *)(CYREG_FASTCLK_IMO_CR), 0x03u);
 743              		.loc 1 520 0
 744 002a 384B     		ldr	r3, .L22+20
 745 002c 0322     		movs	r2, #3
 746 002e 1A70     		strb	r2, [r3]
 521:Generated_Source\PSoC5/cyfitter_cfg.c **** 	CY_SET_XTND_REG8((void CYFAR *)(CYREG_IMO_TR1), (CY_GET_XTND_REG8((void CYFAR *)CYREG_FLSHID_CUST_
 747              		.loc 1 521 0
 748 0030 374B     		ldr	r3, .L22+24
 749 0032 384A     		ldr	r2, .L22+28
 750 0034 1278     		ldrb	r2, [r2]
 751 0036 D2B2     		uxtb	r2, r2
 752 0038 1A70     		strb	r2, [r3]
 522:Generated_Source\PSoC5/cyfitter_cfg.c **** 
 523:Generated_Source\PSoC5/cyfitter_cfg.c **** 	/* Configure PLL based on settings from Clock DWR */
 524:Generated_Source\PSoC5/cyfitter_cfg.c **** 	CY_SET_XTND_REG16((void CYFAR *)(CYREG_FASTCLK_PLL_P), 0x0010u);
 753              		.loc 1 524 0
 754 003a 374B     		ldr	r3, .L22+32
 755 003c 1022     		movs	r2, #16
 756 003e 1A80     		strh	r2, [r3]	@ movhi
 525:Generated_Source\PSoC5/cyfitter_cfg.c **** 	CY_SET_XTND_REG16((void CYFAR *)(CYREG_FASTCLK_PLL_CFG0), 0x1251u);
 757              		.loc 1 525 0
 758 0040 364B     		ldr	r3, .L22+36
 759 0042 41F25122 		movw	r2, #4689
 760 0046 1A80     		strh	r2, [r3]	@ movhi
 526:Generated_Source\PSoC5/cyfitter_cfg.c **** 	/* Wait up to 250us for the PLL to lock */
 527:Generated_Source\PSoC5/cyfitter_cfg.c **** 	pllLock = 0u;
 761              		.loc 1 527 0
 762 0048 0023     		movs	r3, #0
 763 004a FB70     		strb	r3, [r7, #3]
 528:Generated_Source\PSoC5/cyfitter_cfg.c **** 	for (timeout = 250u / 10u; (timeout > 0u) && (pllLock != 0x03u); timeout--)
 764              		.loc 1 528 0
 765 004c 1923     		movs	r3, #25
 766 004e 7B60     		str	r3, [r7, #4]
 767 0050 14E0     		b	.L18
 768              	.L20:
 529:Generated_Source\PSoC5/cyfitter_cfg.c **** 	{ 
 530:Generated_Source\PSoC5/cyfitter_cfg.c **** 		pllLock = 0x03u & ((uint8)((uint8)pllLock << 1) | ((CY_GET_XTND_REG8((void CYFAR *)CYREG_FASTCLK_
 769              		.loc 1 530 0 discriminator 4
 770 0052 FB78     		ldrb	r3, [r7, #3]
 771 0054 5B00     		lsls	r3, r3, #1
 772 0056 DAB2     		uxtb	r2, r3
 773 0058 314B     		ldr	r3, .L22+40
 774 005a 1B78     		ldrb	r3, [r3]
 775 005c DBB2     		uxtb	r3, r3
 776 005e 03F00103 		and	r3, r3, #1
 777 0062 DBB2     		uxtb	r3, r3
 778 0064 1343     		orrs	r3, r3, r2
 779 0066 DBB2     		uxtb	r3, r3
ARM GAS  C:\Users\David\AppData\Local\Temp\ccOenjIg.s 			page 24


 780 0068 03F00303 		and	r3, r3, #3
 781 006c FB70     		strb	r3, [r7, #3]
 531:Generated_Source\PSoC5/cyfitter_cfg.c **** 		CyDelayCycles(10u * 48u); /* Delay 10us based on 48MHz clock */
 782              		.loc 1 531 0 discriminator 4
 783 006e 4FF4F070 		mov	r0, #480
 784 0072 FFF7FEFF 		bl	CyDelayCycles
 528:Generated_Source\PSoC5/cyfitter_cfg.c **** 	for (timeout = 250u / 10u; (timeout > 0u) && (pllLock != 0x03u); timeout--)
 785              		.loc 1 528 0 discriminator 4
 786 0076 7B68     		ldr	r3, [r7, #4]
 787 0078 013B     		subs	r3, r3, #1
 788 007a 7B60     		str	r3, [r7, #4]
 789              	.L18:
 528:Generated_Source\PSoC5/cyfitter_cfg.c **** 	for (timeout = 250u / 10u; (timeout > 0u) && (pllLock != 0x03u); timeout--)
 790              		.loc 1 528 0 is_stmt 0 discriminator 1
 791 007c 7B68     		ldr	r3, [r7, #4]
 792 007e 002B     		cmp	r3, #0
 793 0080 02D0     		beq	.L19
 528:Generated_Source\PSoC5/cyfitter_cfg.c **** 	for (timeout = 250u / 10u; (timeout > 0u) && (pllLock != 0x03u); timeout--)
 794              		.loc 1 528 0 discriminator 3
 795 0082 FB78     		ldrb	r3, [r7, #3]	@ zero_extendqisi2
 796 0084 032B     		cmp	r3, #3
 797 0086 E4D1     		bne	.L20
 798              	.L19:
 532:Generated_Source\PSoC5/cyfitter_cfg.c **** 	}
 533:Generated_Source\PSoC5/cyfitter_cfg.c **** 	/* If we ran out of time the PLL didn't lock so go to the error function */
 534:Generated_Source\PSoC5/cyfitter_cfg.c **** 	if (timeout == 0u)
 799              		.loc 1 534 0 is_stmt 1
 800 0088 7B68     		ldr	r3, [r7, #4]
 801 008a 002B     		cmp	r3, #0
 802 008c 02D1     		bne	.L21
 535:Generated_Source\PSoC5/cyfitter_cfg.c **** 	{
 536:Generated_Source\PSoC5/cyfitter_cfg.c **** 		CyClockStartupError(CYCLOCKSTART_PLL_ERROR);
 803              		.loc 1 536 0
 804 008e 0320     		movs	r0, #3
 805 0090 FFF7FEFF 		bl	CyClockStartupError
 806              	.L21:
 537:Generated_Source\PSoC5/cyfitter_cfg.c **** 	}
 538:Generated_Source\PSoC5/cyfitter_cfg.c **** 
 539:Generated_Source\PSoC5/cyfitter_cfg.c **** 	/* Configure Bus/Master Clock based on settings from Clock DWR */
 540:Generated_Source\PSoC5/cyfitter_cfg.c **** 	CY_SET_XTND_REG16((void CYFAR *)(CYREG_CLKDIST_MSTR0), 0x0100u);
 807              		.loc 1 540 0
 808 0094 234B     		ldr	r3, .L22+44
 809 0096 4FF48072 		mov	r2, #256
 810 009a 1A80     		strh	r2, [r3]	@ movhi
 541:Generated_Source\PSoC5/cyfitter_cfg.c **** 	CY_SET_XTND_REG8((void CYFAR *)(CYREG_CLKDIST_MSTR0), 0x07u);
 811              		.loc 1 541 0
 812 009c 214B     		ldr	r3, .L22+44
 813 009e 0722     		movs	r2, #7
 814 00a0 1A70     		strb	r2, [r3]
 542:Generated_Source\PSoC5/cyfitter_cfg.c **** 	CY_SET_XTND_REG8((void CYFAR *)(CYREG_CLKDIST_BCFG0), 0x00u);
 815              		.loc 1 542 0
 816 00a2 214B     		ldr	r3, .L22+48
 817 00a4 0022     		movs	r2, #0
 818 00a6 1A70     		strb	r2, [r3]
 543:Generated_Source\PSoC5/cyfitter_cfg.c **** 	CY_SET_XTND_REG8((void CYFAR *)(CYREG_CLKDIST_BCFG2), 0x48u);
 819              		.loc 1 543 0
 820 00a8 204B     		ldr	r3, .L22+52
ARM GAS  C:\Users\David\AppData\Local\Temp\ccOenjIg.s 			page 25


 821 00aa 4822     		movs	r2, #72
 822 00ac 1A70     		strb	r2, [r3]
 544:Generated_Source\PSoC5/cyfitter_cfg.c **** 	CY_SET_XTND_REG8((void CYFAR *)(CYREG_CLKDIST_MSTR0), 0x00u);
 823              		.loc 1 544 0
 824 00ae 1D4B     		ldr	r3, .L22+44
 825 00b0 0022     		movs	r2, #0
 826 00b2 1A70     		strb	r2, [r3]
 545:Generated_Source\PSoC5/cyfitter_cfg.c **** 	CY_SET_XTND_REG8((void CYFAR *)(CYREG_CLKDIST_LD), 0x02u);
 827              		.loc 1 545 0
 828 00b4 1E4B     		ldr	r3, .L22+56
 829 00b6 0222     		movs	r2, #2
 830 00b8 1A70     		strb	r2, [r3]
 546:Generated_Source\PSoC5/cyfitter_cfg.c **** 	CY_SET_XTND_REG8((void CYFAR *)(CYREG_CLKDIST_DLY1), 0x04u);
 831              		.loc 1 546 0
 832 00ba 1E4B     		ldr	r3, .L22+60
 833 00bc 0422     		movs	r2, #4
 834 00be 1A70     		strb	r2, [r3]
 547:Generated_Source\PSoC5/cyfitter_cfg.c **** 
 548:Generated_Source\PSoC5/cyfitter_cfg.c **** 	CY_SET_XTND_REG8((void CYFAR *)(CYREG_PM_ACT_CFG2), ((CY_GET_XTND_REG8((void CYFAR *)CYREG_PM_ACT_
 835              		.loc 1 548 0
 836 00c0 1D4A     		ldr	r2, .L22+64
 837 00c2 1D4B     		ldr	r3, .L22+64
 838 00c4 1B78     		ldrb	r3, [r3]
 839 00c6 DBB2     		uxtb	r3, r3
 840 00c8 43F00103 		orr	r3, r3, #1
 841 00cc DBB2     		uxtb	r3, r3
 842 00ce 1370     		strb	r3, [r2]
 549:Generated_Source\PSoC5/cyfitter_cfg.c **** 	CY_SET_XTND_REG8((void CYFAR *)(CYREG_PM_ACT_CFG1), ((CY_GET_XTND_REG8((void CYFAR *)CYREG_PM_ACT_
 843              		.loc 1 549 0
 844 00d0 1A4A     		ldr	r2, .L22+68
 845 00d2 1A4B     		ldr	r3, .L22+68
 846 00d4 1B78     		ldrb	r3, [r3]
 847 00d6 DBB2     		uxtb	r3, r3
 848 00d8 43F00103 		orr	r3, r3, #1
 849 00dc DBB2     		uxtb	r3, r3
 850 00de 1370     		strb	r3, [r2]
 550:Generated_Source\PSoC5/cyfitter_cfg.c **** 	CY_SET_XTND_REG8((void CYFAR *)(CYREG_PM_ACT_CFG0), ((CY_GET_XTND_REG8((void CYFAR *)CYREG_PM_ACT_
 851              		.loc 1 550 0
 852 00e0 174A     		ldr	r2, .L22+72
 853 00e2 174B     		ldr	r3, .L22+72
 854 00e4 1B78     		ldrb	r3, [r3]
 855 00e6 DBB2     		uxtb	r3, r3
 856 00e8 63F07F03 		orn	r3, r3, #127
 857 00ec DBB2     		uxtb	r3, r3
 858 00ee 1370     		strb	r3, [r2]
 551:Generated_Source\PSoC5/cyfitter_cfg.c **** }
 859              		.loc 1 551 0
 860 00f0 00BF     		nop
 861 00f2 0837     		adds	r7, r7, #8
 862              		.cfi_def_cfa_offset 8
 863 00f4 BD46     		mov	sp, r7
 864              		.cfi_def_cfa_register 13
 865              		@ sp needed
 866 00f6 80BD     		pop	{r7, pc}
 867              	.L23:
 868              		.align	2
 869              	.L22:
ARM GAS  C:\Users\David\AppData\Local\Temp\ccOenjIg.s 			page 26


 870 00f8 80400040 		.word	1073758336
 871 00fc 82400040 		.word	1073758338
 872 0100 C00C0048 		.word	1207962816
 873 0104 00410040 		.word	1073758464
 874 0108 00430040 		.word	1073758976
 875 010c 00420040 		.word	1073758720
 876 0110 A1460040 		.word	1073759905
 877 0114 08010049 		.word	1224737032
 878 0118 22420040 		.word	1073758754
 879 011c 20420040 		.word	1073758752
 880 0120 25420040 		.word	1073758757
 881 0124 04400040 		.word	1073758212
 882 0128 06400040 		.word	1073758214
 883 012c 08400040 		.word	1073758216
 884 0130 01400040 		.word	1073758209
 885 0134 0B400040 		.word	1073758219
 886 0138 A2430040 		.word	1073759138
 887 013c A1430040 		.word	1073759137
 888 0140 A0430040 		.word	1073759136
 889              		.cfi_endproc
 890              	.LFE5:
 891              		.size	ClockSetup, .-ClockSetup
 892              		.section	.text.AnalogSetDefault,"ax",%progbits
 893              		.align	2
 894              		.thumb
 895              		.thumb_func
 896              		.type	AnalogSetDefault, %function
 897              	AnalogSetDefault:
 898              	.LFB6:
 552:Generated_Source\PSoC5/cyfitter_cfg.c **** 
 553:Generated_Source\PSoC5/cyfitter_cfg.c **** 
 554:Generated_Source\PSoC5/cyfitter_cfg.c **** /* Analog API Functions */
 555:Generated_Source\PSoC5/cyfitter_cfg.c **** 
 556:Generated_Source\PSoC5/cyfitter_cfg.c **** 
 557:Generated_Source\PSoC5/cyfitter_cfg.c **** /*******************************************************************************
 558:Generated_Source\PSoC5/cyfitter_cfg.c **** * Function Name: AnalogSetDefault
 559:Generated_Source\PSoC5/cyfitter_cfg.c **** ********************************************************************************
 560:Generated_Source\PSoC5/cyfitter_cfg.c **** *
 561:Generated_Source\PSoC5/cyfitter_cfg.c **** * Summary:
 562:Generated_Source\PSoC5/cyfitter_cfg.c **** *  Sets up the analog portions of the chip to default values based on chip
 563:Generated_Source\PSoC5/cyfitter_cfg.c **** *  configuration options from the project.
 564:Generated_Source\PSoC5/cyfitter_cfg.c **** *
 565:Generated_Source\PSoC5/cyfitter_cfg.c **** * Parameters:
 566:Generated_Source\PSoC5/cyfitter_cfg.c **** *  void
 567:Generated_Source\PSoC5/cyfitter_cfg.c **** *
 568:Generated_Source\PSoC5/cyfitter_cfg.c **** * Return:
 569:Generated_Source\PSoC5/cyfitter_cfg.c **** *  void
 570:Generated_Source\PSoC5/cyfitter_cfg.c **** *
 571:Generated_Source\PSoC5/cyfitter_cfg.c **** *******************************************************************************/
 572:Generated_Source\PSoC5/cyfitter_cfg.c **** static void AnalogSetDefault(void);
 573:Generated_Source\PSoC5/cyfitter_cfg.c **** static void AnalogSetDefault(void)
 574:Generated_Source\PSoC5/cyfitter_cfg.c **** {
 899              		.loc 1 574 0
 900              		.cfi_startproc
 901              		@ args = 0, pretend = 0, frame = 8
 902              		@ frame_needed = 1, uses_anonymous_args = 0
 903              		@ link register save eliminated.
ARM GAS  C:\Users\David\AppData\Local\Temp\ccOenjIg.s 			page 27


 904 0000 80B4     		push	{r7}
 905              		.cfi_def_cfa_offset 4
 906              		.cfi_offset 7, -4
 907 0002 83B0     		sub	sp, sp, #12
 908              		.cfi_def_cfa_offset 16
 909 0004 00AF     		add	r7, sp, #0
 910              		.cfi_def_cfa_register 7
 575:Generated_Source\PSoC5/cyfitter_cfg.c **** 	uint8 bg_xover_inl_trim = CY_GET_XTND_REG8((void CYFAR *)(CYREG_FLSHID_MFG_CFG_BG_XOVER_INL_TRIM +
 911              		.loc 1 575 0
 912 0006 0E4B     		ldr	r3, .L25
 913 0008 1B78     		ldrb	r3, [r3]
 914 000a FB71     		strb	r3, [r7, #7]
 576:Generated_Source\PSoC5/cyfitter_cfg.c **** 	CY_SET_XTND_REG8((void CYFAR *)(CYREG_BG_DFT0), (bg_xover_inl_trim & 0x07u));
 915              		.loc 1 576 0
 916 000c 0D4A     		ldr	r2, .L25+4
 917 000e FB79     		ldrb	r3, [r7, #7]
 918 0010 03F00703 		and	r3, r3, #7
 919 0014 DBB2     		uxtb	r3, r3
 920 0016 1370     		strb	r3, [r2]
 577:Generated_Source\PSoC5/cyfitter_cfg.c **** 	CY_SET_XTND_REG8((void CYFAR *)(CYREG_BG_DFT1), ((bg_xover_inl_trim >> 4) & 0x0Fu));
 921              		.loc 1 577 0
 922 0018 0B4A     		ldr	r2, .L25+8
 923 001a FB79     		ldrb	r3, [r7, #7]	@ zero_extendqisi2
 924 001c 1B09     		lsrs	r3, r3, #4
 925 001e DBB2     		uxtb	r3, r3
 926 0020 1370     		strb	r3, [r2]
 578:Generated_Source\PSoC5/cyfitter_cfg.c **** 	CY_SET_XTND_REG8((void CYFAR *)CYREG_OPAMP3_SW, 0x05u);
 927              		.loc 1 578 0
 928 0022 0A4B     		ldr	r3, .L25+12
 929 0024 0522     		movs	r2, #5
 930 0026 1A70     		strb	r2, [r3]
 579:Generated_Source\PSoC5/cyfitter_cfg.c **** 	CY_SET_XTND_REG8((void CYFAR *)CYREG_BUS_SW0, 0x20u);
 931              		.loc 1 579 0
 932 0028 094B     		ldr	r3, .L25+16
 933 002a 2022     		movs	r2, #32
 934 002c 1A70     		strb	r2, [r3]
 580:Generated_Source\PSoC5/cyfitter_cfg.c **** 	CY_SET_XTND_REG8((void CYFAR *)CYREG_PUMP_CR0, 0x44u);
 935              		.loc 1 580 0
 936 002e 094B     		ldr	r3, .L25+20
 937 0030 4422     		movs	r2, #68
 938 0032 1A70     		strb	r2, [r3]
 581:Generated_Source\PSoC5/cyfitter_cfg.c **** }
 939              		.loc 1 581 0
 940 0034 00BF     		nop
 941 0036 0C37     		adds	r7, r7, #12
 942              		.cfi_def_cfa_offset 4
 943 0038 BD46     		mov	sp, r7
 944              		.cfi_def_cfa_register 13
 945              		@ sp needed
 946 003a 80BC     		pop	{r7}
 947              		.cfi_restore 7
 948              		.cfi_def_cfa_offset 0
 949 003c 7047     		bx	lr
 950              	.L26:
 951 003e 00BF     		.align	2
 952              	.L25:
 953 0040 CF010049 		.word	1224737231
ARM GAS  C:\Users\David\AppData\Local\Temp\ccOenjIg.s 			page 28


 954 0044 6E580040 		.word	1073764462
 955 0048 6F580040 		.word	1073764463
 956 004c 475B0040 		.word	1073765191
 957 0050 585B0040 		.word	1073765208
 958 0054 76580040 		.word	1073764470
 959              		.cfi_endproc
 960              	.LFE6:
 961              		.size	AnalogSetDefault, .-AnalogSetDefault
 962              		.section	.text.SetAnalogRoutingPumps,"ax",%progbits
 963              		.align	2
 964              		.global	SetAnalogRoutingPumps
 965              		.thumb
 966              		.thumb_func
 967              		.type	SetAnalogRoutingPumps, %function
 968              	SetAnalogRoutingPumps:
 969              	.LFB7:
 582:Generated_Source\PSoC5/cyfitter_cfg.c **** 
 583:Generated_Source\PSoC5/cyfitter_cfg.c **** 
 584:Generated_Source\PSoC5/cyfitter_cfg.c **** /*******************************************************************************
 585:Generated_Source\PSoC5/cyfitter_cfg.c **** * Function Name: SetAnalogRoutingPumps
 586:Generated_Source\PSoC5/cyfitter_cfg.c **** ********************************************************************************
 587:Generated_Source\PSoC5/cyfitter_cfg.c **** *
 588:Generated_Source\PSoC5/cyfitter_cfg.c **** * Summary:
 589:Generated_Source\PSoC5/cyfitter_cfg.c **** * Enables or disables the analog pumps feeding analog routing switches.
 590:Generated_Source\PSoC5/cyfitter_cfg.c **** * Intended to be called at startup, based on the Vdda system configuration;
 591:Generated_Source\PSoC5/cyfitter_cfg.c **** * may be called during operation when the user informs us that the Vdda voltage
 592:Generated_Source\PSoC5/cyfitter_cfg.c **** * crossed the pump threshold.
 593:Generated_Source\PSoC5/cyfitter_cfg.c **** *
 594:Generated_Source\PSoC5/cyfitter_cfg.c **** * Parameters:
 595:Generated_Source\PSoC5/cyfitter_cfg.c **** *  enabled - 1 to enable the pumps, 0 to disable the pumps
 596:Generated_Source\PSoC5/cyfitter_cfg.c **** *
 597:Generated_Source\PSoC5/cyfitter_cfg.c **** * Return:
 598:Generated_Source\PSoC5/cyfitter_cfg.c **** *  void
 599:Generated_Source\PSoC5/cyfitter_cfg.c **** *
 600:Generated_Source\PSoC5/cyfitter_cfg.c **** *******************************************************************************/
 601:Generated_Source\PSoC5/cyfitter_cfg.c **** void SetAnalogRoutingPumps(uint8 enabled)
 602:Generated_Source\PSoC5/cyfitter_cfg.c **** {
 970              		.loc 1 602 0
 971              		.cfi_startproc
 972              		@ args = 0, pretend = 0, frame = 16
 973              		@ frame_needed = 1, uses_anonymous_args = 0
 974              		@ link register save eliminated.
 975 0000 80B4     		push	{r7}
 976              		.cfi_def_cfa_offset 4
 977              		.cfi_offset 7, -4
 978 0002 85B0     		sub	sp, sp, #20
 979              		.cfi_def_cfa_offset 24
 980 0004 00AF     		add	r7, sp, #0
 981              		.cfi_def_cfa_register 7
 982 0006 0346     		mov	r3, r0
 983 0008 FB71     		strb	r3, [r7, #7]
 603:Generated_Source\PSoC5/cyfitter_cfg.c **** 	uint8 regValue = CY_GET_XTND_REG8((void CYFAR *)CYREG_PUMP_CR0);
 984              		.loc 1 603 0
 985 000a 0B4B     		ldr	r3, .L30
 986 000c 1B78     		ldrb	r3, [r3]
 987 000e FB73     		strb	r3, [r7, #15]
 604:Generated_Source\PSoC5/cyfitter_cfg.c **** 	if (enabled != 0u)
ARM GAS  C:\Users\David\AppData\Local\Temp\ccOenjIg.s 			page 29


 988              		.loc 1 604 0
 989 0010 FB79     		ldrb	r3, [r7, #7]	@ zero_extendqisi2
 990 0012 002B     		cmp	r3, #0
 991 0014 04D0     		beq	.L28
 605:Generated_Source\PSoC5/cyfitter_cfg.c **** 	{
 606:Generated_Source\PSoC5/cyfitter_cfg.c **** 		regValue |= 0x22u;
 992              		.loc 1 606 0
 993 0016 FB7B     		ldrb	r3, [r7, #15]
 994 0018 43F02203 		orr	r3, r3, #34
 995 001c FB73     		strb	r3, [r7, #15]
 996 001e 03E0     		b	.L29
 997              	.L28:
 607:Generated_Source\PSoC5/cyfitter_cfg.c **** 	}
 608:Generated_Source\PSoC5/cyfitter_cfg.c **** 	else
 609:Generated_Source\PSoC5/cyfitter_cfg.c **** 	{
 610:Generated_Source\PSoC5/cyfitter_cfg.c **** 		regValue &= (uint8)~0x22u;
 998              		.loc 1 610 0
 999 0020 FB7B     		ldrb	r3, [r7, #15]
 1000 0022 23F02203 		bic	r3, r3, #34
 1001 0026 FB73     		strb	r3, [r7, #15]
 1002              	.L29:
 611:Generated_Source\PSoC5/cyfitter_cfg.c **** 	}
 612:Generated_Source\PSoC5/cyfitter_cfg.c **** 	CY_SET_XTND_REG8((void CYFAR *)CYREG_PUMP_CR0, regValue);
 1003              		.loc 1 612 0
 1004 0028 034A     		ldr	r2, .L30
 1005 002a FB7B     		ldrb	r3, [r7, #15]
 1006 002c 1370     		strb	r3, [r2]
 613:Generated_Source\PSoC5/cyfitter_cfg.c **** }
 1007              		.loc 1 613 0
 1008 002e 00BF     		nop
 1009 0030 1437     		adds	r7, r7, #20
 1010              		.cfi_def_cfa_offset 4
 1011 0032 BD46     		mov	sp, r7
 1012              		.cfi_def_cfa_register 13
 1013              		@ sp needed
 1014 0034 80BC     		pop	{r7}
 1015              		.cfi_restore 7
 1016              		.cfi_def_cfa_offset 0
 1017 0036 7047     		bx	lr
 1018              	.L31:
 1019              		.align	2
 1020              	.L30:
 1021 0038 76580040 		.word	1073764470
 1022              		.cfi_endproc
 1023              	.LFE7:
 1024              		.size	SetAnalogRoutingPumps, .-SetAnalogRoutingPumps
 1025              		.global	ADC_AMux__addrTable
 1026              		.section	.rodata
 1027              		.align	2
 1028              		.type	ADC_AMux__addrTable, %object
 1029              		.size	ADC_AMux__addrTable, 8
 1030              	ADC_AMux__addrTable:
 1031 0000 035B0040 		.word	1073765123
 1032 0004 24430040 		.word	1073759012
 1033              		.global	ADC_AMux__maskTable
 1034              		.align	2
 1035              		.type	ADC_AMux__maskTable, %object
ARM GAS  C:\Users\David\AppData\Local\Temp\ccOenjIg.s 			page 30


 1036              		.size	ADC_AMux__maskTable, 2
 1037              	ADC_AMux__maskTable:
 1038 0008 40       		.byte	64
 1039 0009 00       		.byte	0
 1040              		.section	.text.ADC_AMux_Set,"ax",%progbits
 1041              		.align	2
 1042              		.global	ADC_AMux_Set
 1043              		.thumb
 1044              		.thumb_func
 1045              		.type	ADC_AMux_Set, %function
 1046              	ADC_AMux_Set:
 1047              	.LFB8:
 614:Generated_Source\PSoC5/cyfitter_cfg.c **** 
 615:Generated_Source\PSoC5/cyfitter_cfg.c **** 
 616:Generated_Source\PSoC5/cyfitter_cfg.c **** #define CY_AMUX_UNUSED CYREG_BOOST_SR
 617:Generated_Source\PSoC5/cyfitter_cfg.c **** /* This is an implementation detail of the AMux. Code that depends on it may be
 618:Generated_Source\PSoC5/cyfitter_cfg.c ****    incompatible with other versions of PSoC Creator. */
 619:Generated_Source\PSoC5/cyfitter_cfg.c **** uint8 CYXDATA * const CYCODE ADC_AMux__addrTable[2] = {
 620:Generated_Source\PSoC5/cyfitter_cfg.c **** 	(uint8 CYXDATA *)CYREG_DSM0_SW3, 
 621:Generated_Source\PSoC5/cyfitter_cfg.c **** 	(uint8 CYXDATA *)CY_AMUX_UNUSED, 
 622:Generated_Source\PSoC5/cyfitter_cfg.c **** };
 623:Generated_Source\PSoC5/cyfitter_cfg.c **** 
 624:Generated_Source\PSoC5/cyfitter_cfg.c **** /* This is an implementation detail of the AMux. Code that depends on it may be
 625:Generated_Source\PSoC5/cyfitter_cfg.c ****    incompatible with other versions of PSoC Creator. */
 626:Generated_Source\PSoC5/cyfitter_cfg.c **** const uint8 CYCODE ADC_AMux__maskTable[2] = {
 627:Generated_Source\PSoC5/cyfitter_cfg.c **** 	0x40u, 
 628:Generated_Source\PSoC5/cyfitter_cfg.c **** 	0x00u, 
 629:Generated_Source\PSoC5/cyfitter_cfg.c **** };
 630:Generated_Source\PSoC5/cyfitter_cfg.c **** 
 631:Generated_Source\PSoC5/cyfitter_cfg.c **** /*******************************************************************************
 632:Generated_Source\PSoC5/cyfitter_cfg.c **** * Function Name: ADC_AMux_Set
 633:Generated_Source\PSoC5/cyfitter_cfg.c **** ********************************************************************************
 634:Generated_Source\PSoC5/cyfitter_cfg.c **** * Summary:
 635:Generated_Source\PSoC5/cyfitter_cfg.c **** *  This function is used to set a particular channel as active on the AMux.
 636:Generated_Source\PSoC5/cyfitter_cfg.c **** *
 637:Generated_Source\PSoC5/cyfitter_cfg.c **** * Parameters:  
 638:Generated_Source\PSoC5/cyfitter_cfg.c **** *   channel - The mux channel input to set as active
 639:Generated_Source\PSoC5/cyfitter_cfg.c **** *
 640:Generated_Source\PSoC5/cyfitter_cfg.c **** * Return:
 641:Generated_Source\PSoC5/cyfitter_cfg.c **** *   void
 642:Generated_Source\PSoC5/cyfitter_cfg.c **** *
 643:Generated_Source\PSoC5/cyfitter_cfg.c **** *******************************************************************************/
 644:Generated_Source\PSoC5/cyfitter_cfg.c **** void ADC_AMux_Set(uint8 channel)
 645:Generated_Source\PSoC5/cyfitter_cfg.c **** {
 1048              		.loc 1 645 0
 1049              		.cfi_startproc
 1050              		@ args = 0, pretend = 0, frame = 8
 1051              		@ frame_needed = 1, uses_anonymous_args = 0
 1052              		@ link register save eliminated.
 1053 0000 80B4     		push	{r7}
 1054              		.cfi_def_cfa_offset 4
 1055              		.cfi_offset 7, -4
 1056 0002 83B0     		sub	sp, sp, #12
 1057              		.cfi_def_cfa_offset 16
 1058 0004 00AF     		add	r7, sp, #0
 1059              		.cfi_def_cfa_register 7
 1060 0006 0346     		mov	r3, r0
ARM GAS  C:\Users\David\AppData\Local\Temp\ccOenjIg.s 			page 31


 1061 0008 FB71     		strb	r3, [r7, #7]
 646:Generated_Source\PSoC5/cyfitter_cfg.c **** 	if (channel < 2)
 1062              		.loc 1 646 0
 1063 000a FB79     		ldrb	r3, [r7, #7]	@ zero_extendqisi2
 1064 000c 012B     		cmp	r3, #1
 1065 000e 0ED8     		bhi	.L34
 647:Generated_Source\PSoC5/cyfitter_cfg.c **** 	{
 648:Generated_Source\PSoC5/cyfitter_cfg.c **** 		*ADC_AMux__addrTable[channel] |= ADC_AMux__maskTable[channel];
 1066              		.loc 1 648 0
 1067 0010 FB79     		ldrb	r3, [r7, #7]	@ zero_extendqisi2
 1068 0012 094A     		ldr	r2, .L35
 1069 0014 52F82330 		ldr	r3, [r2, r3, lsl #2]
 1070 0018 FA79     		ldrb	r2, [r7, #7]	@ zero_extendqisi2
 1071 001a 0749     		ldr	r1, .L35
 1072 001c 51F82220 		ldr	r2, [r1, r2, lsl #2]
 1073 0020 1178     		ldrb	r1, [r2]	@ zero_extendqisi2
 1074 0022 FA79     		ldrb	r2, [r7, #7]	@ zero_extendqisi2
 1075 0024 0548     		ldr	r0, .L35+4
 1076 0026 825C     		ldrb	r2, [r0, r2]	@ zero_extendqisi2
 1077 0028 0A43     		orrs	r2, r2, r1
 1078 002a D2B2     		uxtb	r2, r2
 1079 002c 1A70     		strb	r2, [r3]
 1080              	.L34:
 649:Generated_Source\PSoC5/cyfitter_cfg.c **** 	}
 650:Generated_Source\PSoC5/cyfitter_cfg.c **** }
 1081              		.loc 1 650 0
 1082 002e 00BF     		nop
 1083 0030 0C37     		adds	r7, r7, #12
 1084              		.cfi_def_cfa_offset 4
 1085 0032 BD46     		mov	sp, r7
 1086              		.cfi_def_cfa_register 13
 1087              		@ sp needed
 1088 0034 80BC     		pop	{r7}
 1089              		.cfi_restore 7
 1090              		.cfi_def_cfa_offset 0
 1091 0036 7047     		bx	lr
 1092              	.L36:
 1093              		.align	2
 1094              	.L35:
 1095 0038 00000000 		.word	ADC_AMux__addrTable
 1096 003c 00000000 		.word	ADC_AMux__maskTable
 1097              		.cfi_endproc
 1098              	.LFE8:
 1099              		.size	ADC_AMux_Set, .-ADC_AMux_Set
 1100              		.section	.text.ADC_AMux_Unset,"ax",%progbits
 1101              		.align	2
 1102              		.global	ADC_AMux_Unset
 1103              		.thumb
 1104              		.thumb_func
 1105              		.type	ADC_AMux_Unset, %function
 1106              	ADC_AMux_Unset:
 1107              	.LFB9:
 651:Generated_Source\PSoC5/cyfitter_cfg.c **** 
 652:Generated_Source\PSoC5/cyfitter_cfg.c **** /*******************************************************************************
 653:Generated_Source\PSoC5/cyfitter_cfg.c **** * Function Name: ADC_AMux_Unset
 654:Generated_Source\PSoC5/cyfitter_cfg.c **** ********************************************************************************
 655:Generated_Source\PSoC5/cyfitter_cfg.c **** * Summary:
ARM GAS  C:\Users\David\AppData\Local\Temp\ccOenjIg.s 			page 32


 656:Generated_Source\PSoC5/cyfitter_cfg.c **** *  This function is used to clear a particular channel from being active on the
 657:Generated_Source\PSoC5/cyfitter_cfg.c **** *  AMux.
 658:Generated_Source\PSoC5/cyfitter_cfg.c **** *
 659:Generated_Source\PSoC5/cyfitter_cfg.c **** * Parameters:  
 660:Generated_Source\PSoC5/cyfitter_cfg.c **** *   channel - The mux channel input to mark inactive
 661:Generated_Source\PSoC5/cyfitter_cfg.c **** *
 662:Generated_Source\PSoC5/cyfitter_cfg.c **** * Return:
 663:Generated_Source\PSoC5/cyfitter_cfg.c **** *   void
 664:Generated_Source\PSoC5/cyfitter_cfg.c **** *
 665:Generated_Source\PSoC5/cyfitter_cfg.c **** *******************************************************************************/
 666:Generated_Source\PSoC5/cyfitter_cfg.c **** void ADC_AMux_Unset(uint8 channel)
 667:Generated_Source\PSoC5/cyfitter_cfg.c **** {
 1108              		.loc 1 667 0
 1109              		.cfi_startproc
 1110              		@ args = 0, pretend = 0, frame = 8
 1111              		@ frame_needed = 1, uses_anonymous_args = 0
 1112              		@ link register save eliminated.
 1113 0000 80B4     		push	{r7}
 1114              		.cfi_def_cfa_offset 4
 1115              		.cfi_offset 7, -4
 1116 0002 83B0     		sub	sp, sp, #12
 1117              		.cfi_def_cfa_offset 16
 1118 0004 00AF     		add	r7, sp, #0
 1119              		.cfi_def_cfa_register 7
 1120 0006 0346     		mov	r3, r0
 1121 0008 FB71     		strb	r3, [r7, #7]
 668:Generated_Source\PSoC5/cyfitter_cfg.c **** 	if (channel < 2)
 1122              		.loc 1 668 0
 1123 000a FB79     		ldrb	r3, [r7, #7]	@ zero_extendqisi2
 1124 000c 012B     		cmp	r3, #1
 1125 000e 10D8     		bhi	.L39
 669:Generated_Source\PSoC5/cyfitter_cfg.c **** 	{
 670:Generated_Source\PSoC5/cyfitter_cfg.c **** 		*ADC_AMux__addrTable[channel] &= (uint8)~ADC_AMux__maskTable[channel];
 1126              		.loc 1 670 0
 1127 0010 FB79     		ldrb	r3, [r7, #7]	@ zero_extendqisi2
 1128 0012 0A4A     		ldr	r2, .L40
 1129 0014 52F82330 		ldr	r3, [r2, r3, lsl #2]
 1130 0018 FA79     		ldrb	r2, [r7, #7]	@ zero_extendqisi2
 1131 001a 0849     		ldr	r1, .L40
 1132 001c 51F82220 		ldr	r2, [r1, r2, lsl #2]
 1133 0020 1178     		ldrb	r1, [r2]	@ zero_extendqisi2
 1134 0022 FA79     		ldrb	r2, [r7, #7]	@ zero_extendqisi2
 1135 0024 0648     		ldr	r0, .L40+4
 1136 0026 825C     		ldrb	r2, [r0, r2]	@ zero_extendqisi2
 1137 0028 D243     		mvns	r2, r2
 1138 002a D2B2     		uxtb	r2, r2
 1139 002c 0A40     		ands	r2, r2, r1
 1140 002e D2B2     		uxtb	r2, r2
 1141 0030 1A70     		strb	r2, [r3]
 1142              	.L39:
 671:Generated_Source\PSoC5/cyfitter_cfg.c **** 	}
 672:Generated_Source\PSoC5/cyfitter_cfg.c **** }
 1143              		.loc 1 672 0
 1144 0032 00BF     		nop
 1145 0034 0C37     		adds	r7, r7, #12
 1146              		.cfi_def_cfa_offset 4
 1147 0036 BD46     		mov	sp, r7
ARM GAS  C:\Users\David\AppData\Local\Temp\ccOenjIg.s 			page 33


 1148              		.cfi_def_cfa_register 13
 1149              		@ sp needed
 1150 0038 80BC     		pop	{r7}
 1151              		.cfi_restore 7
 1152              		.cfi_def_cfa_offset 0
 1153 003a 7047     		bx	lr
 1154              	.L41:
 1155              		.align	2
 1156              	.L40:
 1157 003c 00000000 		.word	ADC_AMux__addrTable
 1158 0040 00000000 		.word	ADC_AMux__maskTable
 1159              		.cfi_endproc
 1160              	.LFE9:
 1161              		.size	ADC_AMux_Unset, .-ADC_AMux_Unset
 1162              		.global	myMux__addrTable
 1163              		.section	.rodata
 1164 000a 0000     		.align	2
 1165              		.type	myMux__addrTable, %object
 1166              		.size	myMux__addrTable, 16
 1167              	myMux__addrTable:
 1168 000c 6D510040 		.word	1073762669
 1169 0010 005B0040 		.word	1073765120
 1170 0014 3D510040 		.word	1073762621
 1171 0018 005B0040 		.word	1073765120
 1172              		.global	myMux__maskTable
 1173              		.align	2
 1174              		.type	myMux__maskTable, %object
 1175              		.size	myMux__maskTable, 4
 1176              	myMux__maskTable:
 1177 001c 20       		.byte	32
 1178 001d 02       		.byte	2
 1179 001e 20       		.byte	32
 1180 001f 20       		.byte	32
 1181              		.section	.text.myMux_Set,"ax",%progbits
 1182              		.align	2
 1183              		.global	myMux_Set
 1184              		.thumb
 1185              		.thumb_func
 1186              		.type	myMux_Set, %function
 1187              	myMux_Set:
 1188              	.LFB10:
 673:Generated_Source\PSoC5/cyfitter_cfg.c **** 
 674:Generated_Source\PSoC5/cyfitter_cfg.c **** /* This is an implementation detail of the AMux. Code that depends on it may be
 675:Generated_Source\PSoC5/cyfitter_cfg.c ****    incompatible with other versions of PSoC Creator. */
 676:Generated_Source\PSoC5/cyfitter_cfg.c **** uint8 CYXDATA * const CYCODE myMux__addrTable[4] = {
 677:Generated_Source\PSoC5/cyfitter_cfg.c **** 	(uint8 CYXDATA *)CYREG_PRT6_AG, (uint8 CYXDATA *)CYREG_DSM0_SW0, 
 678:Generated_Source\PSoC5/cyfitter_cfg.c **** 	(uint8 CYXDATA *)CYREG_PRT3_AG, (uint8 CYXDATA *)CYREG_DSM0_SW0, 
 679:Generated_Source\PSoC5/cyfitter_cfg.c **** };
 680:Generated_Source\PSoC5/cyfitter_cfg.c **** 
 681:Generated_Source\PSoC5/cyfitter_cfg.c **** /* This is an implementation detail of the AMux. Code that depends on it may be
 682:Generated_Source\PSoC5/cyfitter_cfg.c ****    incompatible with other versions of PSoC Creator. */
 683:Generated_Source\PSoC5/cyfitter_cfg.c **** const uint8 CYCODE myMux__maskTable[4] = {
 684:Generated_Source\PSoC5/cyfitter_cfg.c **** 	0x20u, 0x02u, 
 685:Generated_Source\PSoC5/cyfitter_cfg.c **** 	0x20u, 0x20u, 
 686:Generated_Source\PSoC5/cyfitter_cfg.c **** };
 687:Generated_Source\PSoC5/cyfitter_cfg.c **** 
 688:Generated_Source\PSoC5/cyfitter_cfg.c **** /*******************************************************************************
ARM GAS  C:\Users\David\AppData\Local\Temp\ccOenjIg.s 			page 34


 689:Generated_Source\PSoC5/cyfitter_cfg.c **** * Function Name: myMux_Set
 690:Generated_Source\PSoC5/cyfitter_cfg.c **** ********************************************************************************
 691:Generated_Source\PSoC5/cyfitter_cfg.c **** * Summary:
 692:Generated_Source\PSoC5/cyfitter_cfg.c **** *  This function is used to set a particular channel as active on the AMux.
 693:Generated_Source\PSoC5/cyfitter_cfg.c **** *
 694:Generated_Source\PSoC5/cyfitter_cfg.c **** * Parameters:  
 695:Generated_Source\PSoC5/cyfitter_cfg.c **** *   channel - The mux channel input to set as active
 696:Generated_Source\PSoC5/cyfitter_cfg.c **** *
 697:Generated_Source\PSoC5/cyfitter_cfg.c **** * Return:
 698:Generated_Source\PSoC5/cyfitter_cfg.c **** *   void
 699:Generated_Source\PSoC5/cyfitter_cfg.c **** *
 700:Generated_Source\PSoC5/cyfitter_cfg.c **** *******************************************************************************/
 701:Generated_Source\PSoC5/cyfitter_cfg.c **** void myMux_Set(uint8 channel)
 702:Generated_Source\PSoC5/cyfitter_cfg.c **** {
 1189              		.loc 1 702 0
 1190              		.cfi_startproc
 1191              		@ args = 0, pretend = 0, frame = 8
 1192              		@ frame_needed = 1, uses_anonymous_args = 0
 1193              		@ link register save eliminated.
 1194 0000 80B4     		push	{r7}
 1195              		.cfi_def_cfa_offset 4
 1196              		.cfi_offset 7, -4
 1197 0002 83B0     		sub	sp, sp, #12
 1198              		.cfi_def_cfa_offset 16
 1199 0004 00AF     		add	r7, sp, #0
 1200              		.cfi_def_cfa_register 7
 1201 0006 0346     		mov	r3, r0
 1202 0008 FB71     		strb	r3, [r7, #7]
 703:Generated_Source\PSoC5/cyfitter_cfg.c **** 	if (channel < 2)
 1203              		.loc 1 703 0
 1204 000a FB79     		ldrb	r3, [r7, #7]	@ zero_extendqisi2
 1205 000c 012B     		cmp	r3, #1
 1206 000e 24D8     		bhi	.L44
 704:Generated_Source\PSoC5/cyfitter_cfg.c **** 	{
 705:Generated_Source\PSoC5/cyfitter_cfg.c **** 		channel += channel;
 1207              		.loc 1 705 0
 1208 0010 FA79     		ldrb	r2, [r7, #7]
 1209 0012 FB79     		ldrb	r3, [r7, #7]
 1210 0014 1344     		add	r3, r3, r2
 1211 0016 FB71     		strb	r3, [r7, #7]
 706:Generated_Source\PSoC5/cyfitter_cfg.c **** 		*myMux__addrTable[channel] |= myMux__maskTable[channel];
 1212              		.loc 1 706 0
 1213 0018 FB79     		ldrb	r3, [r7, #7]	@ zero_extendqisi2
 1214 001a 124A     		ldr	r2, .L45
 1215 001c 52F82330 		ldr	r3, [r2, r3, lsl #2]
 1216 0020 FA79     		ldrb	r2, [r7, #7]	@ zero_extendqisi2
 1217 0022 1049     		ldr	r1, .L45
 1218 0024 51F82220 		ldr	r2, [r1, r2, lsl #2]
 1219 0028 1178     		ldrb	r1, [r2]	@ zero_extendqisi2
 1220 002a FA79     		ldrb	r2, [r7, #7]	@ zero_extendqisi2
 1221 002c 0E48     		ldr	r0, .L45+4
 1222 002e 825C     		ldrb	r2, [r0, r2]	@ zero_extendqisi2
 1223 0030 0A43     		orrs	r2, r2, r1
 1224 0032 D2B2     		uxtb	r2, r2
 1225 0034 1A70     		strb	r2, [r3]
 707:Generated_Source\PSoC5/cyfitter_cfg.c **** 		channel++;
 1226              		.loc 1 707 0
ARM GAS  C:\Users\David\AppData\Local\Temp\ccOenjIg.s 			page 35


 1227 0036 FB79     		ldrb	r3, [r7, #7]	@ zero_extendqisi2
 1228 0038 0133     		adds	r3, r3, #1
 1229 003a FB71     		strb	r3, [r7, #7]
 708:Generated_Source\PSoC5/cyfitter_cfg.c **** 		*myMux__addrTable[channel] |= myMux__maskTable[channel];
 1230              		.loc 1 708 0
 1231 003c FB79     		ldrb	r3, [r7, #7]	@ zero_extendqisi2
 1232 003e 094A     		ldr	r2, .L45
 1233 0040 52F82330 		ldr	r3, [r2, r3, lsl #2]
 1234 0044 FA79     		ldrb	r2, [r7, #7]	@ zero_extendqisi2
 1235 0046 0749     		ldr	r1, .L45
 1236 0048 51F82220 		ldr	r2, [r1, r2, lsl #2]
 1237 004c 1178     		ldrb	r1, [r2]	@ zero_extendqisi2
 1238 004e FA79     		ldrb	r2, [r7, #7]	@ zero_extendqisi2
 1239 0050 0548     		ldr	r0, .L45+4
 1240 0052 825C     		ldrb	r2, [r0, r2]	@ zero_extendqisi2
 1241 0054 0A43     		orrs	r2, r2, r1
 1242 0056 D2B2     		uxtb	r2, r2
 1243 0058 1A70     		strb	r2, [r3]
 1244              	.L44:
 709:Generated_Source\PSoC5/cyfitter_cfg.c **** 	}
 710:Generated_Source\PSoC5/cyfitter_cfg.c **** }
 1245              		.loc 1 710 0
 1246 005a 00BF     		nop
 1247 005c 0C37     		adds	r7, r7, #12
 1248              		.cfi_def_cfa_offset 4
 1249 005e BD46     		mov	sp, r7
 1250              		.cfi_def_cfa_register 13
 1251              		@ sp needed
 1252 0060 80BC     		pop	{r7}
 1253              		.cfi_restore 7
 1254              		.cfi_def_cfa_offset 0
 1255 0062 7047     		bx	lr
 1256              	.L46:
 1257              		.align	2
 1258              	.L45:
 1259 0064 00000000 		.word	myMux__addrTable
 1260 0068 00000000 		.word	myMux__maskTable
 1261              		.cfi_endproc
 1262              	.LFE10:
 1263              		.size	myMux_Set, .-myMux_Set
 1264              		.section	.text.myMux_Unset,"ax",%progbits
 1265              		.align	2
 1266              		.global	myMux_Unset
 1267              		.thumb
 1268              		.thumb_func
 1269              		.type	myMux_Unset, %function
 1270              	myMux_Unset:
 1271              	.LFB11:
 711:Generated_Source\PSoC5/cyfitter_cfg.c **** 
 712:Generated_Source\PSoC5/cyfitter_cfg.c **** /*******************************************************************************
 713:Generated_Source\PSoC5/cyfitter_cfg.c **** * Function Name: myMux_Unset
 714:Generated_Source\PSoC5/cyfitter_cfg.c **** ********************************************************************************
 715:Generated_Source\PSoC5/cyfitter_cfg.c **** * Summary:
 716:Generated_Source\PSoC5/cyfitter_cfg.c **** *  This function is used to clear a particular channel from being active on the
 717:Generated_Source\PSoC5/cyfitter_cfg.c **** *  AMux.
 718:Generated_Source\PSoC5/cyfitter_cfg.c **** *
 719:Generated_Source\PSoC5/cyfitter_cfg.c **** * Parameters:  
ARM GAS  C:\Users\David\AppData\Local\Temp\ccOenjIg.s 			page 36


 720:Generated_Source\PSoC5/cyfitter_cfg.c **** *   channel - The mux channel input to mark inactive
 721:Generated_Source\PSoC5/cyfitter_cfg.c **** *
 722:Generated_Source\PSoC5/cyfitter_cfg.c **** * Return:
 723:Generated_Source\PSoC5/cyfitter_cfg.c **** *   void
 724:Generated_Source\PSoC5/cyfitter_cfg.c **** *
 725:Generated_Source\PSoC5/cyfitter_cfg.c **** *******************************************************************************/
 726:Generated_Source\PSoC5/cyfitter_cfg.c **** void myMux_Unset(uint8 channel)
 727:Generated_Source\PSoC5/cyfitter_cfg.c **** {
 1272              		.loc 1 727 0
 1273              		.cfi_startproc
 1274              		@ args = 0, pretend = 0, frame = 8
 1275              		@ frame_needed = 1, uses_anonymous_args = 0
 1276              		@ link register save eliminated.
 1277 0000 80B4     		push	{r7}
 1278              		.cfi_def_cfa_offset 4
 1279              		.cfi_offset 7, -4
 1280 0002 83B0     		sub	sp, sp, #12
 1281              		.cfi_def_cfa_offset 16
 1282 0004 00AF     		add	r7, sp, #0
 1283              		.cfi_def_cfa_register 7
 1284 0006 0346     		mov	r3, r0
 1285 0008 FB71     		strb	r3, [r7, #7]
 728:Generated_Source\PSoC5/cyfitter_cfg.c **** 	if (channel < 2)
 1286              		.loc 1 728 0
 1287 000a FB79     		ldrb	r3, [r7, #7]	@ zero_extendqisi2
 1288 000c 012B     		cmp	r3, #1
 1289 000e 28D8     		bhi	.L49
 729:Generated_Source\PSoC5/cyfitter_cfg.c **** 	{
 730:Generated_Source\PSoC5/cyfitter_cfg.c **** 		channel += channel;
 1290              		.loc 1 730 0
 1291 0010 FA79     		ldrb	r2, [r7, #7]
 1292 0012 FB79     		ldrb	r3, [r7, #7]
 1293 0014 1344     		add	r3, r3, r2
 1294 0016 FB71     		strb	r3, [r7, #7]
 731:Generated_Source\PSoC5/cyfitter_cfg.c **** 		*myMux__addrTable[channel] &= (uint8)~myMux__maskTable[channel];
 1295              		.loc 1 731 0
 1296 0018 FB79     		ldrb	r3, [r7, #7]	@ zero_extendqisi2
 1297 001a 144A     		ldr	r2, .L50
 1298 001c 52F82330 		ldr	r3, [r2, r3, lsl #2]
 1299 0020 FA79     		ldrb	r2, [r7, #7]	@ zero_extendqisi2
 1300 0022 1249     		ldr	r1, .L50
 1301 0024 51F82220 		ldr	r2, [r1, r2, lsl #2]
 1302 0028 1178     		ldrb	r1, [r2]	@ zero_extendqisi2
 1303 002a FA79     		ldrb	r2, [r7, #7]	@ zero_extendqisi2
 1304 002c 1048     		ldr	r0, .L50+4
 1305 002e 825C     		ldrb	r2, [r0, r2]	@ zero_extendqisi2
 1306 0030 D243     		mvns	r2, r2
 1307 0032 D2B2     		uxtb	r2, r2
 1308 0034 0A40     		ands	r2, r2, r1
 1309 0036 D2B2     		uxtb	r2, r2
 1310 0038 1A70     		strb	r2, [r3]
 732:Generated_Source\PSoC5/cyfitter_cfg.c **** 		channel++;
 1311              		.loc 1 732 0
 1312 003a FB79     		ldrb	r3, [r7, #7]	@ zero_extendqisi2
 1313 003c 0133     		adds	r3, r3, #1
 1314 003e FB71     		strb	r3, [r7, #7]
 733:Generated_Source\PSoC5/cyfitter_cfg.c **** 		*myMux__addrTable[channel] &= (uint8)~myMux__maskTable[channel];
ARM GAS  C:\Users\David\AppData\Local\Temp\ccOenjIg.s 			page 37


 1315              		.loc 1 733 0
 1316 0040 FB79     		ldrb	r3, [r7, #7]	@ zero_extendqisi2
 1317 0042 0A4A     		ldr	r2, .L50
 1318 0044 52F82330 		ldr	r3, [r2, r3, lsl #2]
 1319 0048 FA79     		ldrb	r2, [r7, #7]	@ zero_extendqisi2
 1320 004a 0849     		ldr	r1, .L50
 1321 004c 51F82220 		ldr	r2, [r1, r2, lsl #2]
 1322 0050 1178     		ldrb	r1, [r2]	@ zero_extendqisi2
 1323 0052 FA79     		ldrb	r2, [r7, #7]	@ zero_extendqisi2
 1324 0054 0648     		ldr	r0, .L50+4
 1325 0056 825C     		ldrb	r2, [r0, r2]	@ zero_extendqisi2
 1326 0058 D243     		mvns	r2, r2
 1327 005a D2B2     		uxtb	r2, r2
 1328 005c 0A40     		ands	r2, r2, r1
 1329 005e D2B2     		uxtb	r2, r2
 1330 0060 1A70     		strb	r2, [r3]
 1331              	.L49:
 734:Generated_Source\PSoC5/cyfitter_cfg.c **** 	}
 735:Generated_Source\PSoC5/cyfitter_cfg.c **** }
 1332              		.loc 1 735 0
 1333 0062 00BF     		nop
 1334 0064 0C37     		adds	r7, r7, #12
 1335              		.cfi_def_cfa_offset 4
 1336 0066 BD46     		mov	sp, r7
 1337              		.cfi_def_cfa_register 13
 1338              		@ sp needed
 1339 0068 80BC     		pop	{r7}
 1340              		.cfi_restore 7
 1341              		.cfi_def_cfa_offset 0
 1342 006a 7047     		bx	lr
 1343              	.L51:
 1344              		.align	2
 1345              	.L50:
 1346 006c 00000000 		.word	myMux__addrTable
 1347 0070 00000000 		.word	myMux__maskTable
 1348              		.cfi_endproc
 1349              	.LFE11:
 1350              		.size	myMux_Unset, .-myMux_Unset
 1351              		.section	.text.cyfitter_cfg,"ax",%progbits
 1352              		.align	2
 1353              		.global	cyfitter_cfg
 1354              		.thumb
 1355              		.thumb_func
 1356              		.type	cyfitter_cfg, %function
 1357              	cyfitter_cfg:
 1358              	.LFB12:
 736:Generated_Source\PSoC5/cyfitter_cfg.c **** 
 737:Generated_Source\PSoC5/cyfitter_cfg.c **** 
 738:Generated_Source\PSoC5/cyfitter_cfg.c **** 
 739:Generated_Source\PSoC5/cyfitter_cfg.c **** /*******************************************************************************
 740:Generated_Source\PSoC5/cyfitter_cfg.c **** * Function Name: cyfitter_cfg
 741:Generated_Source\PSoC5/cyfitter_cfg.c **** ********************************************************************************
 742:Generated_Source\PSoC5/cyfitter_cfg.c **** * Summary:
 743:Generated_Source\PSoC5/cyfitter_cfg.c **** *  This function is called by the start-up code for the selected device. It
 744:Generated_Source\PSoC5/cyfitter_cfg.c **** *  performs all of the necessary device configuration based on the design
 745:Generated_Source\PSoC5/cyfitter_cfg.c **** *  settings.  This includes settings from the Design Wide Resources (DWR) such
 746:Generated_Source\PSoC5/cyfitter_cfg.c **** *  as Clocks and Pins as well as any component configuration that is necessary.
ARM GAS  C:\Users\David\AppData\Local\Temp\ccOenjIg.s 			page 38


 747:Generated_Source\PSoC5/cyfitter_cfg.c **** *
 748:Generated_Source\PSoC5/cyfitter_cfg.c **** * Parameters:
 749:Generated_Source\PSoC5/cyfitter_cfg.c **** *   void
 750:Generated_Source\PSoC5/cyfitter_cfg.c **** *
 751:Generated_Source\PSoC5/cyfitter_cfg.c **** * Return:
 752:Generated_Source\PSoC5/cyfitter_cfg.c **** *   void
 753:Generated_Source\PSoC5/cyfitter_cfg.c **** *
 754:Generated_Source\PSoC5/cyfitter_cfg.c **** *******************************************************************************/
 755:Generated_Source\PSoC5/cyfitter_cfg.c **** 
 756:Generated_Source\PSoC5/cyfitter_cfg.c **** void cyfitter_cfg(void)
 757:Generated_Source\PSoC5/cyfitter_cfg.c **** {
 1359              		.loc 1 757 0
 1360              		.cfi_startproc
 1361              		@ args = 0, pretend = 0, frame = 0
 1362              		@ frame_needed = 1, uses_anonymous_args = 0
 1363 0000 80B5     		push	{r7, lr}
 1364              		.cfi_def_cfa_offset 8
 1365              		.cfi_offset 7, -8
 1366              		.cfi_offset 14, -4
 1367 0002 00AF     		add	r7, sp, #0
 1368              		.cfi_def_cfa_register 7
 758:Generated_Source\PSoC5/cyfitter_cfg.c **** #ifdef CYGlobalIntDisable
 759:Generated_Source\PSoC5/cyfitter_cfg.c **** 	/* Disable interrupts by default. Let user enable if/when they want. */
 760:Generated_Source\PSoC5/cyfitter_cfg.c **** 	CYGlobalIntDisable
 1369              		.loc 1 760 0
 1370              		.syntax unified
 1371              	@ 760 "Generated_Source\PSoC5\cyfitter_cfg.c" 1
 1372 0004 72B6     		CPSID   i
 1373              	@ 0 "" 2
 761:Generated_Source\PSoC5/cyfitter_cfg.c **** #endif
 762:Generated_Source\PSoC5/cyfitter_cfg.c **** 
 763:Generated_Source\PSoC5/cyfitter_cfg.c **** 	{
 764:Generated_Source\PSoC5/cyfitter_cfg.c **** 		cfg_dma_init();
 1374              		.loc 1 764 0
 1375              		.thumb
 1376              		.syntax unified
 1377 0006 FFF7FEFF 		bl	cfg_dma_init
 765:Generated_Source\PSoC5/cyfitter_cfg.c **** 
 766:Generated_Source\PSoC5/cyfitter_cfg.c **** 		/* Perform normal device configuration. Order is not critical for these items. */
 767:Generated_Source\PSoC5/cyfitter_cfg.c **** 		CY_SET_XTND_REG8((void CYFAR *)(CYREG_DSM0_CR3), 0x0Au);
 1378              		.loc 1 767 0
 1379 000a 2C4B     		ldr	r3, .L53
 1380 000c 0A22     		movs	r2, #10
 1381 000e 1A70     		strb	r2, [r3]
 768:Generated_Source\PSoC5/cyfitter_cfg.c **** 
 769:Generated_Source\PSoC5/cyfitter_cfg.c **** 		/* Enable digital routing */
 770:Generated_Source\PSoC5/cyfitter_cfg.c **** 		CY_SET_XTND_REG8((void CYFAR *)CYREG_BCTL0_BANK_CTL, CY_GET_XTND_REG8((void CYFAR *)CYREG_BCTL0_B
 1382              		.loc 1 770 0
 1383 0010 2B4A     		ldr	r2, .L53+4
 1384 0012 2B4B     		ldr	r3, .L53+4
 1385 0014 1B78     		ldrb	r3, [r3]
 1386 0016 DBB2     		uxtb	r3, r3
 1387 0018 43F00203 		orr	r3, r3, #2
 1388 001c DBB2     		uxtb	r3, r3
 1389 001e 1370     		strb	r3, [r2]
 771:Generated_Source\PSoC5/cyfitter_cfg.c **** 		CY_SET_XTND_REG8((void CYFAR *)CYREG_BCTL1_BANK_CTL, CY_GET_XTND_REG8((void CYFAR *)CYREG_BCTL1_B
 1390              		.loc 1 771 0
ARM GAS  C:\Users\David\AppData\Local\Temp\ccOenjIg.s 			page 39


 1391 0020 284A     		ldr	r2, .L53+8
 1392 0022 284B     		ldr	r3, .L53+8
 1393 0024 1B78     		ldrb	r3, [r3]
 1394 0026 DBB2     		uxtb	r3, r3
 1395 0028 43F00203 		orr	r3, r3, #2
 1396 002c DBB2     		uxtb	r3, r3
 1397 002e 1370     		strb	r3, [r2]
 772:Generated_Source\PSoC5/cyfitter_cfg.c **** 
 773:Generated_Source\PSoC5/cyfitter_cfg.c **** 		/* Enable UDB array */
 774:Generated_Source\PSoC5/cyfitter_cfg.c **** 		CY_SET_XTND_REG8((void CYFAR *)CYREG_PM_ACT_CFG0, CY_GET_XTND_REG8((void CYFAR *)CYREG_PM_ACT_CFG
 1398              		.loc 1 774 0
 1399 0030 254A     		ldr	r2, .L53+12
 1400 0032 254B     		ldr	r3, .L53+12
 1401 0034 1B78     		ldrb	r3, [r3]
 1402 0036 DBB2     		uxtb	r3, r3
 1403 0038 43F04003 		orr	r3, r3, #64
 1404 003c DBB2     		uxtb	r3, r3
 1405 003e 1370     		strb	r3, [r2]
 775:Generated_Source\PSoC5/cyfitter_cfg.c **** 		CY_SET_XTND_REG8((void CYFAR *)CYREG_PM_AVAIL_CR2, CY_GET_XTND_REG8((void CYFAR *)CYREG_PM_AVAIL_
 1406              		.loc 1 775 0
 1407 0040 224A     		ldr	r2, .L53+16
 1408 0042 224B     		ldr	r3, .L53+16
 1409 0044 1B78     		ldrb	r3, [r3]
 1410 0046 DBB2     		uxtb	r3, r3
 1411 0048 43F01003 		orr	r3, r3, #16
 1412 004c DBB2     		uxtb	r3, r3
 1413 004e 1370     		strb	r3, [r2]
 776:Generated_Source\PSoC5/cyfitter_cfg.c **** 	}
 777:Generated_Source\PSoC5/cyfitter_cfg.c **** 
 778:Generated_Source\PSoC5/cyfitter_cfg.c **** 
 779:Generated_Source\PSoC5/cyfitter_cfg.c **** 	/* Perform second pass device configuration. These items must be configured in specific order afte
 780:Generated_Source\PSoC5/cyfitter_cfg.c **** 	CYCONFIGCPY((void CYFAR *)(CYREG_PRT0_DM0), (const void CYFAR *)(BS_IOPINS0_0_VAL), 8u);
 1414              		.loc 1 780 0
 1415 0050 0822     		movs	r2, #8
 1416 0052 1F49     		ldr	r1, .L53+20
 1417 0054 1F48     		ldr	r0, .L53+24
 1418 0056 FFF7FEFF 		bl	CYCONFIGCPY
 781:Generated_Source\PSoC5/cyfitter_cfg.c **** 	CYCONFIGCPY((void CYFAR *)(CYREG_PRT1_DM0), (const void CYFAR *)(BS_IOPINS0_1_VAL), 8u);
 1419              		.loc 1 781 0
 1420 005a 0822     		movs	r2, #8
 1421 005c 1E49     		ldr	r1, .L53+28
 1422 005e 1F48     		ldr	r0, .L53+32
 1423 0060 FFF7FEFF 		bl	CYCONFIGCPY
 782:Generated_Source\PSoC5/cyfitter_cfg.c **** 	CYCONFIGCPY((void CYFAR *)(CYREG_PRT2_DM0), (const void CYFAR *)(BS_IOPINS0_2_VAL), 8u);
 1424              		.loc 1 782 0
 1425 0064 0822     		movs	r2, #8
 1426 0066 1E49     		ldr	r1, .L53+36
 1427 0068 1E48     		ldr	r0, .L53+40
 1428 006a FFF7FEFF 		bl	CYCONFIGCPY
 783:Generated_Source\PSoC5/cyfitter_cfg.c **** 	CYCONFIGCPY((void CYFAR *)(CYREG_PRT3_DM0), (const void CYFAR *)(BS_IOPINS0_3_VAL), 8u);
 1429              		.loc 1 783 0
 1430 006e 0822     		movs	r2, #8
 1431 0070 1D49     		ldr	r1, .L53+44
 1432 0072 1E48     		ldr	r0, .L53+48
 1433 0074 FFF7FEFF 		bl	CYCONFIGCPY
 784:Generated_Source\PSoC5/cyfitter_cfg.c **** 	CYCONFIGCPY((void CYFAR *)(CYREG_PRT6_DR), (const void CYFAR *)(BS_IOPINS0_6_VAL), 10u);
 1434              		.loc 1 784 0
ARM GAS  C:\Users\David\AppData\Local\Temp\ccOenjIg.s 			page 40


 1435 0078 0A22     		movs	r2, #10
 1436 007a 1D49     		ldr	r1, .L53+52
 1437 007c 1D48     		ldr	r0, .L53+56
 1438 007e FFF7FEFF 		bl	CYCONFIGCPY
 785:Generated_Source\PSoC5/cyfitter_cfg.c **** 	/* Switch Boost to the precision bandgap reference from its internal reference */
 786:Generated_Source\PSoC5/cyfitter_cfg.c **** 	CY_SET_REG8((void CYXDATA *)CYREG_BOOST_CR2, (CY_GET_REG8((void CYXDATA *)CYREG_BOOST_CR2) | 0x08u
 1439              		.loc 1 786 0
 1440 0082 1D4A     		ldr	r2, .L53+60
 1441 0084 1C4B     		ldr	r3, .L53+60
 1442 0086 1B78     		ldrb	r3, [r3]
 1443 0088 DBB2     		uxtb	r3, r3
 1444 008a 43F00803 		orr	r3, r3, #8
 1445 008e DBB2     		uxtb	r3, r3
 1446 0090 1370     		strb	r3, [r2]
 787:Generated_Source\PSoC5/cyfitter_cfg.c **** 
 788:Generated_Source\PSoC5/cyfitter_cfg.c **** 	/* Set Flash Cycles based on max possible frequency in case a glitch occurs during ClockSetup(). *
 789:Generated_Source\PSoC5/cyfitter_cfg.c **** 	CY_SET_XTND_REG8((void CYFAR *)(CYREG_CACHE_CC_CTL), (((CYDEV_INSTRUCT_CACHE_ENABLED) != 0) ? 0x61
 1447              		.loc 1 789 0
 1448 0092 1A4B     		ldr	r3, .L53+64
 1449 0094 6122     		movs	r2, #97
 1450 0096 1A70     		strb	r2, [r3]
 790:Generated_Source\PSoC5/cyfitter_cfg.c **** 	/* Setup clocks based on selections from Clock DWR */
 791:Generated_Source\PSoC5/cyfitter_cfg.c **** 	ClockSetup();
 1451              		.loc 1 791 0
 1452 0098 FFF7FEFF 		bl	ClockSetup
 792:Generated_Source\PSoC5/cyfitter_cfg.c **** 	/* Set Flash Cycles based on newly configured 48.00MHz Bus Clock. */
 793:Generated_Source\PSoC5/cyfitter_cfg.c **** 	CY_SET_XTND_REG8((void CYFAR *)(CYREG_CACHE_CC_CTL), (((CYDEV_INSTRUCT_CACHE_ENABLED) != 0) ? 0xC1
 1453              		.loc 1 793 0
 1454 009c 174B     		ldr	r3, .L53+64
 1455 009e C122     		movs	r2, #193
 1456 00a0 1A70     		strb	r2, [r3]
 794:Generated_Source\PSoC5/cyfitter_cfg.c **** 	CY_SET_XTND_REG8((void CYFAR *)(CYREG_PANTHER_WAITPIPE), 0x01u);
 1457              		.loc 1 794 0
 1458 00a2 174B     		ldr	r3, .L53+68
 1459 00a4 0122     		movs	r2, #1
 1460 00a6 1A70     		strb	r2, [r3]
 795:Generated_Source\PSoC5/cyfitter_cfg.c **** 
 796:Generated_Source\PSoC5/cyfitter_cfg.c **** 	/* Perform basic analog initialization to defaults */
 797:Generated_Source\PSoC5/cyfitter_cfg.c **** 	AnalogSetDefault();
 1461              		.loc 1 797 0
 1462 00a8 FFF7FEFF 		bl	AnalogSetDefault
 798:Generated_Source\PSoC5/cyfitter_cfg.c **** 
 799:Generated_Source\PSoC5/cyfitter_cfg.c **** 	/* Configure alternate active mode */
 800:Generated_Source\PSoC5/cyfitter_cfg.c **** 	CYCONFIGCPY((void CYFAR *)CYDEV_PM_STBY_BASE, (const void CYFAR *)CYDEV_PM_ACT_BASE, 14u);
 1463              		.loc 1 800 0
 1464 00ac 0E22     		movs	r2, #14
 1465 00ae 0649     		ldr	r1, .L53+12
 1466 00b0 1448     		ldr	r0, .L53+72
 1467 00b2 FFF7FEFF 		bl	CYCONFIGCPY
 801:Generated_Source\PSoC5/cyfitter_cfg.c **** }
 1468              		.loc 1 801 0
 1469 00b6 00BF     		nop
 1470 00b8 80BD     		pop	{r7, pc}
 1471              	.L54:
 1472 00ba 00BF     		.align	2
 1473              	.L53:
 1474 00bc 83580040 		.word	1073764483
ARM GAS  C:\Users\David\AppData\Local\Temp\ccOenjIg.s 			page 41


 1475 00c0 03500140 		.word	1073827843
 1476 00c4 13500140 		.word	1073827859
 1477 00c8 A0430040 		.word	1073759136
 1478 00cc C2430040 		.word	1073759170
 1479 00d0 940C0048 		.word	1207962772
 1480 00d4 02510040 		.word	1073762562
 1481 00d8 9C0C0048 		.word	1207962780
 1482 00dc 12510040 		.word	1073762578
 1483 00e0 A40C0048 		.word	1207962788
 1484 00e4 22510040 		.word	1073762594
 1485 00e8 AC0C0048 		.word	1207962796
 1486 00ec 32510040 		.word	1073762610
 1487 00f0 B40C0048 		.word	1207962804
 1488 00f4 60510040 		.word	1073762656
 1489 00f8 22430040 		.word	1073759010
 1490 00fc 00480040 		.word	1073760256
 1491 0100 04000840 		.word	1074266116
 1492 0104 B0430040 		.word	1073759152
 1493              		.cfi_endproc
 1494              	.LFE12:
 1495              		.size	cyfitter_cfg, .-cyfitter_cfg
 1496              		.bss
 1497              		.align	3
 1498              	DMA_ZERO_VAL.4993:
 1499 0000 00000000 		.space	4
 1500              		.section	.rodata
 1501              		.align	2
 1502              		.type	CFG_TD_ADDR0.4995, %object
 1503              		.size	CFG_TD_ADDR0.4995, 208
 1504              	CFG_TD_ADDR0.4995:
 1505 0020 00000000 		.word	CH1_ADDR_DATA0.4988
 1506 0024 08000000 		.word	CH2_ADDR_DATA0.4989
 1507 0028 10000000 		.word	CH5_ADDR_DATA0.4990
 1508 002c 18000000 		.word	CH6_ADDR_DATA0.4991
 1509 0030 20000000 		.word	DMA_TD_START_CMD.4992
 1510 0034 20000000 		.word	DMA_TD_START_CMD.4992
 1511 0038 20000000 		.word	DMA_TD_START_CMD.4992
 1512 003c 20000000 		.word	DMA_TD_START_CMD.4992
 1513 0040 00000000 		.word	DMA_ZERO_VAL.4993
 1514 0044 00000000 		.word	DMA_ZERO_VAL.4993
 1515 0048 00000000 		.word	DMA_ZERO_VAL.4993
 1516 004c 00000000 		.word	DMA_ZERO_VAL.4993
 1517 0050 00000000 		.word	DMA_ZERO_VAL.4993
 1518 0054 00000000 		.word	DMA_ZERO_VAL.4993
 1519 0058 00000000 		.word	DMA_ZERO_VAL.4993
 1520 005c 00000000 		.word	DMA_ZERO_VAL.4993
 1521 0060 00000000 		.word	DMA_ZERO_VAL.4993
 1522 0064 00000000 		.word	DMA_ZERO_VAL.4993
 1523 0068 00000000 		.word	DMA_ZERO_VAL.4993
 1524 006c 00000000 		.word	DMA_ZERO_VAL.4993
 1525 0070 00000000 		.word	DMA_ZERO_VAL.4993
 1526 0074 00000000 		.word	DMA_ZERO_VAL.4993
 1527 0078 00000000 		.word	DMA_ZERO_VAL.4993
 1528 007c 00000000 		.word	DMA_ZERO_VAL.4993
 1529 0080 00000000 		.word	DMA_ZERO_VAL.4993
 1530 0084 00000048 		.word	1207959552
 1531 0088 08000048 		.word	1207959560
ARM GAS  C:\Users\David\AppData\Local\Temp\ccOenjIg.s 			page 42


 1532 008c 14000048 		.word	1207959572
 1533 0090 94000048 		.word	1207959700
 1534 0094 14010048 		.word	1207959828
 1535 0098 94010048 		.word	1207959956
 1536 009c 14020048 		.word	1207960084
 1537 00a0 94020048 		.word	1207960212
 1538 00a4 14030048 		.word	1207960340
 1539 00a8 94030048 		.word	1207960468
 1540 00ac 14040048 		.word	1207960596
 1541 00b0 94040048 		.word	1207960724
 1542 00b4 14050048 		.word	1207960852
 1543 00b8 94050048 		.word	1207960980
 1544 00bc 14060048 		.word	1207961108
 1545 00c0 94060048 		.word	1207961236
 1546 00c4 14070048 		.word	1207961364
 1547 00c8 94070048 		.word	1207961492
 1548 00cc 14080048 		.word	1207961620
 1549 00d0 94080048 		.word	1207961748
 1550 00d4 14090048 		.word	1207961876
 1551 00d8 94090048 		.word	1207962004
 1552 00dc 140A0048 		.word	1207962132
 1553 00e0 940A0048 		.word	1207962260
 1554 00e4 140B0048 		.word	1207962388
 1555 00e8 940B0048 		.word	1207962516
 1556 00ec 140C0048 		.word	1207962644
 1557              		.text
 1558              	.Letext0:
 1559              		.file 2 "c:\\program files (x86)\\cypress\\psoc creator\\4.2\\psoc creator\\import\\gnu\\arm\\5.4.
 1560              		.file 3 "Generated_Source\\PSoC5\\cytypes.h"